
BlueToothSpeaker.elf:     file format elf32-littlearm

Sections:
Idx Name          Size      VMA       LMA       File off  Algn
  0 .isr_vector   00000298  08000000  08000000  00001000  2**0
                  CONTENTS, ALLOC, LOAD, READONLY, DATA
  1 .text         00003cc4  080002a0  080002a0  000012a0  2**4
                  CONTENTS, ALLOC, LOAD, READONLY, CODE
  2 .rodata       000000f0  08003f64  08003f64  00004f64  2**2
                  CONTENTS, ALLOC, LOAD, READONLY, DATA
  3 .ARM          00000008  08004054  08004054  00005054  2**2
                  CONTENTS, ALLOC, LOAD, READONLY, DATA
  4 .init_array   00000004  0800405c  0800405c  0000505c  2**2
                  CONTENTS, ALLOC, LOAD, READONLY, DATA
  5 .fini_array   00000004  08004060  08004060  00005060  2**2
                  CONTENTS, ALLOC, LOAD, READONLY, DATA
  6 .data         00000074  24000000  08004064  00006000  2**2
                  CONTENTS, ALLOC, LOAD, DATA
  7 .bss          000006e4  24000074  080040d8  00006074  2**2
                  ALLOC
  8 ._user_heap_stack 00000600  24000758  080040d8  00006758  2**0
                  ALLOC
  9 .ARM.attributes 0000002e  00000000  00000000  00006074  2**0
                  CONTENTS, READONLY
 10 .comment      00000043  00000000  00000000  000060a2  2**0
                  CONTENTS, READONLY
 11 .debug_frame  000005e4  00000000  00000000  000060e8  2**2
                  CONTENTS, READONLY, DEBUGGING, OCTETS

Disassembly of section .text:

080002a0 <__do_global_dtors_aux>:
 80002a0:	b510      	push	{r4, lr}
 80002a2:	4c05      	ldr	r4, [pc, #20]	@ (80002b8 <__do_global_dtors_aux+0x18>)
 80002a4:	7823      	ldrb	r3, [r4, #0]
 80002a6:	b933      	cbnz	r3, 80002b6 <__do_global_dtors_aux+0x16>
 80002a8:	4b04      	ldr	r3, [pc, #16]	@ (80002bc <__do_global_dtors_aux+0x1c>)
 80002aa:	b113      	cbz	r3, 80002b2 <__do_global_dtors_aux+0x12>
 80002ac:	4804      	ldr	r0, [pc, #16]	@ (80002c0 <__do_global_dtors_aux+0x20>)
 80002ae:	f3af 8000 	nop.w
 80002b2:	2301      	movs	r3, #1
 80002b4:	7023      	strb	r3, [r4, #0]
 80002b6:	bd10      	pop	{r4, pc}
 80002b8:	24000074 	.word	0x24000074
 80002bc:	00000000 	.word	0x00000000
 80002c0:	08003f4c 	.word	0x08003f4c

080002c4 <frame_dummy>:
 80002c4:	b508      	push	{r3, lr}
 80002c6:	4b03      	ldr	r3, [pc, #12]	@ (80002d4 <frame_dummy+0x10>)
 80002c8:	b11b      	cbz	r3, 80002d2 <frame_dummy+0xe>
 80002ca:	4903      	ldr	r1, [pc, #12]	@ (80002d8 <frame_dummy+0x14>)
 80002cc:	4803      	ldr	r0, [pc, #12]	@ (80002dc <frame_dummy+0x18>)
 80002ce:	f3af 8000 	nop.w
 80002d2:	bd08      	pop	{r3, pc}
 80002d4:	00000000 	.word	0x00000000
 80002d8:	24000078 	.word	0x24000078
 80002dc:	08003f4c 	.word	0x08003f4c

080002e0 <strlen>:
 80002e0:	4603      	mov	r3, r0
 80002e2:	f813 2b01 	ldrb.w	r2, [r3], #1
 80002e6:	2a00      	cmp	r2, #0
 80002e8:	d1fb      	bne.n	80002e2 <strlen+0x2>
 80002ea:	1a18      	subs	r0, r3, r0
 80002ec:	3801      	subs	r0, #1
 80002ee:	4770      	bx	lr

080002f0 <memchr>:
 80002f0:	f001 01ff 	and.w	r1, r1, #255	@ 0xff
 80002f4:	2a10      	cmp	r2, #16
 80002f6:	db2b      	blt.n	8000350 <memchr+0x60>
 80002f8:	f010 0f07 	tst.w	r0, #7
 80002fc:	d008      	beq.n	8000310 <memchr+0x20>
 80002fe:	f810 3b01 	ldrb.w	r3, [r0], #1
 8000302:	3a01      	subs	r2, #1
 8000304:	428b      	cmp	r3, r1
 8000306:	d02d      	beq.n	8000364 <memchr+0x74>
 8000308:	f010 0f07 	tst.w	r0, #7
 800030c:	b342      	cbz	r2, 8000360 <memchr+0x70>
 800030e:	d1f6      	bne.n	80002fe <memchr+0xe>
 8000310:	b4f0      	push	{r4, r5, r6, r7}
 8000312:	ea41 2101 	orr.w	r1, r1, r1, lsl #8
 8000316:	ea41 4101 	orr.w	r1, r1, r1, lsl #16
 800031a:	f022 0407 	bic.w	r4, r2, #7
 800031e:	f07f 0700 	mvns.w	r7, #0
 8000322:	2300      	movs	r3, #0
 8000324:	e8f0 5602 	ldrd	r5, r6, [r0], #8
 8000328:	3c08      	subs	r4, #8
 800032a:	ea85 0501 	eor.w	r5, r5, r1
 800032e:	ea86 0601 	eor.w	r6, r6, r1
 8000332:	fa85 f547 	uadd8	r5, r5, r7
 8000336:	faa3 f587 	sel	r5, r3, r7
 800033a:	fa86 f647 	uadd8	r6, r6, r7
 800033e:	faa5 f687 	sel	r6, r5, r7
 8000342:	b98e      	cbnz	r6, 8000368 <memchr+0x78>
 8000344:	d1ee      	bne.n	8000324 <memchr+0x34>
 8000346:	bcf0      	pop	{r4, r5, r6, r7}
 8000348:	f001 01ff 	and.w	r1, r1, #255	@ 0xff
 800034c:	f002 0207 	and.w	r2, r2, #7
 8000350:	b132      	cbz	r2, 8000360 <memchr+0x70>
 8000352:	f810 3b01 	ldrb.w	r3, [r0], #1
 8000356:	3a01      	subs	r2, #1
 8000358:	ea83 0301 	eor.w	r3, r3, r1
 800035c:	b113      	cbz	r3, 8000364 <memchr+0x74>
 800035e:	d1f8      	bne.n	8000352 <memchr+0x62>
 8000360:	2000      	movs	r0, #0
 8000362:	4770      	bx	lr
 8000364:	3801      	subs	r0, #1
 8000366:	4770      	bx	lr
 8000368:	2d00      	cmp	r5, #0
 800036a:	bf06      	itte	eq
 800036c:	4635      	moveq	r5, r6
 800036e:	3803      	subeq	r0, #3
 8000370:	3807      	subne	r0, #7
 8000372:	f015 0f01 	tst.w	r5, #1
 8000376:	d107      	bne.n	8000388 <memchr+0x98>
 8000378:	3001      	adds	r0, #1
 800037a:	f415 7f80 	tst.w	r5, #256	@ 0x100
 800037e:	bf02      	ittt	eq
 8000380:	3001      	addeq	r0, #1
 8000382:	f415 3fc0 	tsteq.w	r5, #98304	@ 0x18000
 8000386:	3001      	addeq	r0, #1
 8000388:	bcf0      	pop	{r4, r5, r6, r7}
 800038a:	3801      	subs	r0, #1
 800038c:	4770      	bx	lr
 800038e:	bf00      	nop

08000390 <__aeabi_uldivmod>:
 8000390:	b953      	cbnz	r3, 80003a8 <__aeabi_uldivmod+0x18>
 8000392:	b94a      	cbnz	r2, 80003a8 <__aeabi_uldivmod+0x18>
 8000394:	2900      	cmp	r1, #0
 8000396:	bf08      	it	eq
 8000398:	2800      	cmpeq	r0, #0
 800039a:	bf1c      	itt	ne
 800039c:	f04f 31ff 	movne.w	r1, #4294967295
 80003a0:	f04f 30ff 	movne.w	r0, #4294967295
 80003a4:	f000 b96a 	b.w	800067c <__aeabi_idiv0>
 80003a8:	f1ad 0c08 	sub.w	ip, sp, #8
 80003ac:	e96d ce04 	strd	ip, lr, [sp, #-16]!
 80003b0:	f000 f806 	bl	80003c0 <__udivmoddi4>
 80003b4:	f8dd e004 	ldr.w	lr, [sp, #4]
 80003b8:	e9dd 2302 	ldrd	r2, r3, [sp, #8]
 80003bc:	b004      	add	sp, #16
 80003be:	4770      	bx	lr

080003c0 <__udivmoddi4>:
 80003c0:	e92d 47f0 	stmdb	sp!, {r4, r5, r6, r7, r8, r9, sl, lr}
 80003c4:	9d08      	ldr	r5, [sp, #32]
 80003c6:	460c      	mov	r4, r1
 80003c8:	2b00      	cmp	r3, #0
 80003ca:	d14e      	bne.n	800046a <__udivmoddi4+0xaa>
 80003cc:	4694      	mov	ip, r2
 80003ce:	458c      	cmp	ip, r1
 80003d0:	4686      	mov	lr, r0
 80003d2:	fab2 f282 	clz	r2, r2
 80003d6:	d962      	bls.n	800049e <__udivmoddi4+0xde>
 80003d8:	b14a      	cbz	r2, 80003ee <__udivmoddi4+0x2e>
 80003da:	f1c2 0320 	rsb	r3, r2, #32
 80003de:	4091      	lsls	r1, r2
 80003e0:	fa20 f303 	lsr.w	r3, r0, r3
 80003e4:	fa0c fc02 	lsl.w	ip, ip, r2
 80003e8:	4319      	orrs	r1, r3
 80003ea:	fa00 fe02 	lsl.w	lr, r0, r2
 80003ee:	ea4f 471c 	mov.w	r7, ip, lsr #16
 80003f2:	fa1f f68c 	uxth.w	r6, ip
 80003f6:	fbb1 f4f7 	udiv	r4, r1, r7
 80003fa:	ea4f 431e 	mov.w	r3, lr, lsr #16
 80003fe:	fb07 1114 	mls	r1, r7, r4, r1
 8000402:	ea43 4301 	orr.w	r3, r3, r1, lsl #16
 8000406:	fb04 f106 	mul.w	r1, r4, r6
 800040a:	4299      	cmp	r1, r3
 800040c:	d90a      	bls.n	8000424 <__udivmoddi4+0x64>
 800040e:	eb1c 0303 	adds.w	r3, ip, r3
 8000412:	f104 30ff 	add.w	r0, r4, #4294967295
 8000416:	f080 8112 	bcs.w	800063e <__udivmoddi4+0x27e>
 800041a:	4299      	cmp	r1, r3
 800041c:	f240 810f 	bls.w	800063e <__udivmoddi4+0x27e>
 8000420:	3c02      	subs	r4, #2
 8000422:	4463      	add	r3, ip
 8000424:	1a59      	subs	r1, r3, r1
 8000426:	fa1f f38e 	uxth.w	r3, lr
 800042a:	fbb1 f0f7 	udiv	r0, r1, r7
 800042e:	fb07 1110 	mls	r1, r7, r0, r1
 8000432:	ea43 4301 	orr.w	r3, r3, r1, lsl #16
 8000436:	fb00 f606 	mul.w	r6, r0, r6
 800043a:	429e      	cmp	r6, r3
 800043c:	d90a      	bls.n	8000454 <__udivmoddi4+0x94>
 800043e:	eb1c 0303 	adds.w	r3, ip, r3
 8000442:	f100 31ff 	add.w	r1, r0, #4294967295
 8000446:	f080 80fc 	bcs.w	8000642 <__udivmoddi4+0x282>
 800044a:	429e      	cmp	r6, r3
 800044c:	f240 80f9 	bls.w	8000642 <__udivmoddi4+0x282>
 8000450:	4463      	add	r3, ip
 8000452:	3802      	subs	r0, #2
 8000454:	1b9b      	subs	r3, r3, r6
 8000456:	ea40 4004 	orr.w	r0, r0, r4, lsl #16
 800045a:	2100      	movs	r1, #0
 800045c:	b11d      	cbz	r5, 8000466 <__udivmoddi4+0xa6>
 800045e:	40d3      	lsrs	r3, r2
 8000460:	2200      	movs	r2, #0
 8000462:	e9c5 3200 	strd	r3, r2, [r5]
 8000466:	e8bd 87f0 	ldmia.w	sp!, {r4, r5, r6, r7, r8, r9, sl, pc}
 800046a:	428b      	cmp	r3, r1
 800046c:	d905      	bls.n	800047a <__udivmoddi4+0xba>
 800046e:	b10d      	cbz	r5, 8000474 <__udivmoddi4+0xb4>
 8000470:	e9c5 0100 	strd	r0, r1, [r5]
 8000474:	2100      	movs	r1, #0
 8000476:	4608      	mov	r0, r1
 8000478:	e7f5      	b.n	8000466 <__udivmoddi4+0xa6>
 800047a:	fab3 f183 	clz	r1, r3
 800047e:	2900      	cmp	r1, #0
 8000480:	d146      	bne.n	8000510 <__udivmoddi4+0x150>
 8000482:	42a3      	cmp	r3, r4
 8000484:	d302      	bcc.n	800048c <__udivmoddi4+0xcc>
 8000486:	4290      	cmp	r0, r2
 8000488:	f0c0 80f0 	bcc.w	800066c <__udivmoddi4+0x2ac>
 800048c:	1a86      	subs	r6, r0, r2
 800048e:	eb64 0303 	sbc.w	r3, r4, r3
 8000492:	2001      	movs	r0, #1
 8000494:	2d00      	cmp	r5, #0
 8000496:	d0e6      	beq.n	8000466 <__udivmoddi4+0xa6>
 8000498:	e9c5 6300 	strd	r6, r3, [r5]
 800049c:	e7e3      	b.n	8000466 <__udivmoddi4+0xa6>
 800049e:	2a00      	cmp	r2, #0
 80004a0:	f040 8090 	bne.w	80005c4 <__udivmoddi4+0x204>
 80004a4:	eba1 040c 	sub.w	r4, r1, ip
 80004a8:	ea4f 481c 	mov.w	r8, ip, lsr #16
 80004ac:	fa1f f78c 	uxth.w	r7, ip
 80004b0:	2101      	movs	r1, #1
 80004b2:	fbb4 f6f8 	udiv	r6, r4, r8
 80004b6:	ea4f 431e 	mov.w	r3, lr, lsr #16
 80004ba:	fb08 4416 	mls	r4, r8, r6, r4
 80004be:	ea43 4304 	orr.w	r3, r3, r4, lsl #16
 80004c2:	fb07 f006 	mul.w	r0, r7, r6
 80004c6:	4298      	cmp	r0, r3
 80004c8:	d908      	bls.n	80004dc <__udivmoddi4+0x11c>
 80004ca:	eb1c 0303 	adds.w	r3, ip, r3
 80004ce:	f106 34ff 	add.w	r4, r6, #4294967295
 80004d2:	d202      	bcs.n	80004da <__udivmoddi4+0x11a>
 80004d4:	4298      	cmp	r0, r3
 80004d6:	f200 80cd 	bhi.w	8000674 <__udivmoddi4+0x2b4>
 80004da:	4626      	mov	r6, r4
 80004dc:	1a1c      	subs	r4, r3, r0
 80004de:	fa1f f38e 	uxth.w	r3, lr
 80004e2:	fbb4 f0f8 	udiv	r0, r4, r8
 80004e6:	fb08 4410 	mls	r4, r8, r0, r4
 80004ea:	ea43 4304 	orr.w	r3, r3, r4, lsl #16
 80004ee:	fb00 f707 	mul.w	r7, r0, r7
 80004f2:	429f      	cmp	r7, r3
 80004f4:	d908      	bls.n	8000508 <__udivmoddi4+0x148>
 80004f6:	eb1c 0303 	adds.w	r3, ip, r3
 80004fa:	f100 34ff 	add.w	r4, r0, #4294967295
 80004fe:	d202      	bcs.n	8000506 <__udivmoddi4+0x146>
 8000500:	429f      	cmp	r7, r3
 8000502:	f200 80b0 	bhi.w	8000666 <__udivmoddi4+0x2a6>
 8000506:	4620      	mov	r0, r4
 8000508:	1bdb      	subs	r3, r3, r7
 800050a:	ea40 4006 	orr.w	r0, r0, r6, lsl #16
 800050e:	e7a5      	b.n	800045c <__udivmoddi4+0x9c>
 8000510:	f1c1 0620 	rsb	r6, r1, #32
 8000514:	408b      	lsls	r3, r1
 8000516:	fa22 f706 	lsr.w	r7, r2, r6
 800051a:	431f      	orrs	r7, r3
 800051c:	fa20 fc06 	lsr.w	ip, r0, r6
 8000520:	fa04 f301 	lsl.w	r3, r4, r1
 8000524:	ea43 030c 	orr.w	r3, r3, ip
 8000528:	40f4      	lsrs	r4, r6
 800052a:	fa00 f801 	lsl.w	r8, r0, r1
 800052e:	0c38      	lsrs	r0, r7, #16
 8000530:	ea4f 4913 	mov.w	r9, r3, lsr #16
 8000534:	fbb4 fef0 	udiv	lr, r4, r0
 8000538:	fa1f fc87 	uxth.w	ip, r7
 800053c:	fb00 441e 	mls	r4, r0, lr, r4
 8000540:	ea49 4404 	orr.w	r4, r9, r4, lsl #16
 8000544:	fb0e f90c 	mul.w	r9, lr, ip
 8000548:	45a1      	cmp	r9, r4
 800054a:	fa02 f201 	lsl.w	r2, r2, r1
 800054e:	d90a      	bls.n	8000566 <__udivmoddi4+0x1a6>
 8000550:	193c      	adds	r4, r7, r4
 8000552:	f10e 3aff 	add.w	sl, lr, #4294967295
 8000556:	f080 8084 	bcs.w	8000662 <__udivmoddi4+0x2a2>
 800055a:	45a1      	cmp	r9, r4
 800055c:	f240 8081 	bls.w	8000662 <__udivmoddi4+0x2a2>
 8000560:	f1ae 0e02 	sub.w	lr, lr, #2
 8000564:	443c      	add	r4, r7
 8000566:	eba4 0409 	sub.w	r4, r4, r9
 800056a:	fa1f f983 	uxth.w	r9, r3
 800056e:	fbb4 f3f0 	udiv	r3, r4, r0
 8000572:	fb00 4413 	mls	r4, r0, r3, r4
 8000576:	ea49 4404 	orr.w	r4, r9, r4, lsl #16
 800057a:	fb03 fc0c 	mul.w	ip, r3, ip
 800057e:	45a4      	cmp	ip, r4
 8000580:	d907      	bls.n	8000592 <__udivmoddi4+0x1d2>
 8000582:	193c      	adds	r4, r7, r4
 8000584:	f103 30ff 	add.w	r0, r3, #4294967295
 8000588:	d267      	bcs.n	800065a <__udivmoddi4+0x29a>
 800058a:	45a4      	cmp	ip, r4
 800058c:	d965      	bls.n	800065a <__udivmoddi4+0x29a>
 800058e:	3b02      	subs	r3, #2
 8000590:	443c      	add	r4, r7
 8000592:	ea43 400e 	orr.w	r0, r3, lr, lsl #16
 8000596:	fba0 9302 	umull	r9, r3, r0, r2
 800059a:	eba4 040c 	sub.w	r4, r4, ip
 800059e:	429c      	cmp	r4, r3
 80005a0:	46ce      	mov	lr, r9
 80005a2:	469c      	mov	ip, r3
 80005a4:	d351      	bcc.n	800064a <__udivmoddi4+0x28a>
 80005a6:	d04e      	beq.n	8000646 <__udivmoddi4+0x286>
 80005a8:	b155      	cbz	r5, 80005c0 <__udivmoddi4+0x200>
 80005aa:	ebb8 030e 	subs.w	r3, r8, lr
 80005ae:	eb64 040c 	sbc.w	r4, r4, ip
 80005b2:	fa04 f606 	lsl.w	r6, r4, r6
 80005b6:	40cb      	lsrs	r3, r1
 80005b8:	431e      	orrs	r6, r3
 80005ba:	40cc      	lsrs	r4, r1
 80005bc:	e9c5 6400 	strd	r6, r4, [r5]
 80005c0:	2100      	movs	r1, #0
 80005c2:	e750      	b.n	8000466 <__udivmoddi4+0xa6>
 80005c4:	f1c2 0320 	rsb	r3, r2, #32
 80005c8:	fa20 f103 	lsr.w	r1, r0, r3
 80005cc:	fa0c fc02 	lsl.w	ip, ip, r2
 80005d0:	fa24 f303 	lsr.w	r3, r4, r3
 80005d4:	4094      	lsls	r4, r2
 80005d6:	430c      	orrs	r4, r1
 80005d8:	ea4f 481c 	mov.w	r8, ip, lsr #16
 80005dc:	fa00 fe02 	lsl.w	lr, r0, r2
 80005e0:	fa1f f78c 	uxth.w	r7, ip
 80005e4:	fbb3 f0f8 	udiv	r0, r3, r8
 80005e8:	fb08 3110 	mls	r1, r8, r0, r3
 80005ec:	0c23      	lsrs	r3, r4, #16
 80005ee:	ea43 4301 	orr.w	r3, r3, r1, lsl #16
 80005f2:	fb00 f107 	mul.w	r1, r0, r7
 80005f6:	4299      	cmp	r1, r3
 80005f8:	d908      	bls.n	800060c <__udivmoddi4+0x24c>
 80005fa:	eb1c 0303 	adds.w	r3, ip, r3
 80005fe:	f100 36ff 	add.w	r6, r0, #4294967295
 8000602:	d22c      	bcs.n	800065e <__udivmoddi4+0x29e>
 8000604:	4299      	cmp	r1, r3
 8000606:	d92a      	bls.n	800065e <__udivmoddi4+0x29e>
 8000608:	3802      	subs	r0, #2
 800060a:	4463      	add	r3, ip
 800060c:	1a5b      	subs	r3, r3, r1
 800060e:	b2a4      	uxth	r4, r4
 8000610:	fbb3 f1f8 	udiv	r1, r3, r8
 8000614:	fb08 3311 	mls	r3, r8, r1, r3
 8000618:	ea44 4403 	orr.w	r4, r4, r3, lsl #16
 800061c:	fb01 f307 	mul.w	r3, r1, r7
 8000620:	42a3      	cmp	r3, r4
 8000622:	d908      	bls.n	8000636 <__udivmoddi4+0x276>
 8000624:	eb1c 0404 	adds.w	r4, ip, r4
 8000628:	f101 36ff 	add.w	r6, r1, #4294967295
 800062c:	d213      	bcs.n	8000656 <__udivmoddi4+0x296>
 800062e:	42a3      	cmp	r3, r4
 8000630:	d911      	bls.n	8000656 <__udivmoddi4+0x296>
 8000632:	3902      	subs	r1, #2
 8000634:	4464      	add	r4, ip
 8000636:	1ae4      	subs	r4, r4, r3
 8000638:	ea41 4100 	orr.w	r1, r1, r0, lsl #16
 800063c:	e739      	b.n	80004b2 <__udivmoddi4+0xf2>
 800063e:	4604      	mov	r4, r0
 8000640:	e6f0      	b.n	8000424 <__udivmoddi4+0x64>
 8000642:	4608      	mov	r0, r1
 8000644:	e706      	b.n	8000454 <__udivmoddi4+0x94>
 8000646:	45c8      	cmp	r8, r9
 8000648:	d2ae      	bcs.n	80005a8 <__udivmoddi4+0x1e8>
 800064a:	ebb9 0e02 	subs.w	lr, r9, r2
 800064e:	eb63 0c07 	sbc.w	ip, r3, r7
 8000652:	3801      	subs	r0, #1
 8000654:	e7a8      	b.n	80005a8 <__udivmoddi4+0x1e8>
 8000656:	4631      	mov	r1, r6
 8000658:	e7ed      	b.n	8000636 <__udivmoddi4+0x276>
 800065a:	4603      	mov	r3, r0
 800065c:	e799      	b.n	8000592 <__udivmoddi4+0x1d2>
 800065e:	4630      	mov	r0, r6
 8000660:	e7d4      	b.n	800060c <__udivmoddi4+0x24c>
 8000662:	46d6      	mov	lr, sl
 8000664:	e77f      	b.n	8000566 <__udivmoddi4+0x1a6>
 8000666:	4463      	add	r3, ip
 8000668:	3802      	subs	r0, #2
 800066a:	e74d      	b.n	8000508 <__udivmoddi4+0x148>
 800066c:	4606      	mov	r6, r0
 800066e:	4623      	mov	r3, r4
 8000670:	4608      	mov	r0, r1
 8000672:	e70f      	b.n	8000494 <__udivmoddi4+0xd4>
 8000674:	3e02      	subs	r6, #2
 8000676:	4463      	add	r3, ip
 8000678:	e730      	b.n	80004dc <__udivmoddi4+0x11c>
 800067a:	bf00      	nop

0800067c <__aeabi_idiv0>:
 800067c:	4770      	bx	lr
 800067e:	bf00      	nop

08000680 <MX_GPIO_Init>:
 8000680:	b5f0      	push	{r4, r5, r6, r7, lr}
 8000682:	2214      	movs	r2, #20
 8000684:	b08b      	sub	sp, #44	@ 0x2c
 8000686:	2100      	movs	r1, #0
 8000688:	4f35      	ldr	r7, [pc, #212]	@ (8000760 <MX_GPIO_Init+0xe0>)
 800068a:	eb0d 0002 	add.w	r0, sp, r2
 800068e:	4d35      	ldr	r5, [pc, #212]	@ (8000764 <MX_GPIO_Init+0xe4>)
 8000690:	f002 ffdc 	bl	800364c <memset>
 8000694:	4b34      	ldr	r3, [pc, #208]	@ (8000768 <MX_GPIO_Init+0xe8>)
 8000696:	4638      	mov	r0, r7
 8000698:	f248 0160 	movw	r1, #32864	@ 0x8060
 800069c:	f8d3 20e0 	ldr.w	r2, [r3, #224]	@ 0xe0
 80006a0:	2400      	movs	r4, #0
 80006a2:	2601      	movs	r6, #1
 80006a4:	f042 0204 	orr.w	r2, r2, #4
 80006a8:	f8c3 20e0 	str.w	r2, [r3, #224]	@ 0xe0
 80006ac:	f8d3 20e0 	ldr.w	r2, [r3, #224]	@ 0xe0
 80006b0:	f002 0204 	and.w	r2, r2, #4
 80006b4:	9201      	str	r2, [sp, #4]
 80006b6:	9a01      	ldr	r2, [sp, #4]
 80006b8:	f8d3 20e0 	ldr.w	r2, [r3, #224]	@ 0xe0
 80006bc:	f042 0201 	orr.w	r2, r2, #1
 80006c0:	f8c3 20e0 	str.w	r2, [r3, #224]	@ 0xe0
 80006c4:	f8d3 20e0 	ldr.w	r2, [r3, #224]	@ 0xe0
 80006c8:	f002 0201 	and.w	r2, r2, #1
 80006cc:	9202      	str	r2, [sp, #8]
 80006ce:	9a02      	ldr	r2, [sp, #8]
 80006d0:	f8d3 20e0 	ldr.w	r2, [r3, #224]	@ 0xe0
 80006d4:	f042 0208 	orr.w	r2, r2, #8
 80006d8:	f8c3 20e0 	str.w	r2, [r3, #224]	@ 0xe0
 80006dc:	f8d3 20e0 	ldr.w	r2, [r3, #224]	@ 0xe0
 80006e0:	f002 0208 	and.w	r2, r2, #8
 80006e4:	9203      	str	r2, [sp, #12]
 80006e6:	9a03      	ldr	r2, [sp, #12]
 80006e8:	f8d3 20e0 	ldr.w	r2, [r3, #224]	@ 0xe0
 80006ec:	f042 0202 	orr.w	r2, r2, #2
 80006f0:	f8c3 20e0 	str.w	r2, [r3, #224]	@ 0xe0
 80006f4:	2201      	movs	r2, #1
 80006f6:	f8d3 30e0 	ldr.w	r3, [r3, #224]	@ 0xe0
 80006fa:	f003 0302 	and.w	r3, r3, #2
 80006fe:	9304      	str	r3, [sp, #16]
 8000700:	9b04      	ldr	r3, [sp, #16]
 8000702:	f000 fd59 	bl	80011b8 <HAL_GPIO_WritePin>
 8000706:	4628      	mov	r0, r5
 8000708:	2201      	movs	r2, #1
 800070a:	2180      	movs	r1, #128	@ 0x80
 800070c:	f000 fd54 	bl	80011b8 <HAL_GPIO_WritePin>
 8000710:	f44f 5200 	mov.w	r2, #8192	@ 0x2000
 8000714:	f44f 1344 	mov.w	r3, #3211264	@ 0x310000
 8000718:	a905      	add	r1, sp, #20
 800071a:	4814      	ldr	r0, [pc, #80]	@ (800076c <MX_GPIO_Init+0xec>)
 800071c:	9407      	str	r4, [sp, #28]
 800071e:	e9cd 2305 	strd	r2, r3, [sp, #20]
 8000722:	f000 fc5b 	bl	8000fdc <HAL_GPIO_Init>
 8000726:	f248 0360 	movw	r3, #32864	@ 0x8060
 800072a:	a905      	add	r1, sp, #20
 800072c:	4638      	mov	r0, r7
 800072e:	e9cd 3605 	strd	r3, r6, [sp, #20]
 8000732:	e9cd 4407 	strd	r4, r4, [sp, #28]
 8000736:	f000 fc51 	bl	8000fdc <HAL_GPIO_Init>
 800073a:	2380      	movs	r3, #128	@ 0x80
 800073c:	a905      	add	r1, sp, #20
 800073e:	4628      	mov	r0, r5
 8000740:	e9cd 3605 	strd	r3, r6, [sp, #20]
 8000744:	e9cd 4407 	strd	r4, r4, [sp, #28]
 8000748:	f000 fc48 	bl	8000fdc <HAL_GPIO_Init>
 800074c:	4622      	mov	r2, r4
 800074e:	2102      	movs	r1, #2
 8000750:	2028      	movs	r0, #40	@ 0x28
 8000752:	f000 fba5 	bl	8000ea0 <HAL_NVIC_SetPriority>
 8000756:	2028      	movs	r0, #40	@ 0x28
 8000758:	f000 fbd4 	bl	8000f04 <HAL_NVIC_EnableIRQ>
 800075c:	b00b      	add	sp, #44	@ 0x2c
 800075e:	bdf0      	pop	{r4, r5, r6, r7, pc}
 8000760:	58020000 	.word	0x58020000
 8000764:	58020400 	.word	0x58020400
 8000768:	58024400 	.word	0x58024400
 800076c:	58020800 	.word	0x58020800

08000770 <press_m18_key>:
 8000770:	b570      	push	{r4, r5, r6, lr}
 8000772:	4c18      	ldr	r4, [pc, #96]	@ (80007d4 <press_m18_key+0x64>)
 8000774:	b09a      	sub	sp, #104	@ 0x68
 8000776:	4605      	mov	r5, r0
 8000778:	4917      	ldr	r1, [pc, #92]	@ (80007d8 <press_m18_key+0x68>)
 800077a:	6823      	ldr	r3, [r4, #0]
 800077c:	4668      	mov	r0, sp
 800077e:	4e17      	ldr	r6, [pc, #92]	@ (80007dc <press_m18_key+0x6c>)
 8000780:	781a      	ldrb	r2, [r3, #0]
 8000782:	f002 ff43 	bl	800360c <siprintf>
 8000786:	4668      	mov	r0, sp
 8000788:	f7ff fdaa 	bl	80002e0 <strlen>
 800078c:	4669      	mov	r1, sp
 800078e:	b282      	uxth	r2, r0
 8000790:	f44f 737a 	mov.w	r3, #1000	@ 0x3e8
 8000794:	4630      	mov	r0, r6
 8000796:	f002 fc24 	bl	8002fe2 <HAL_UART_Transmit>
 800079a:	6823      	ldr	r3, [r4, #0]
 800079c:	b2ea      	uxtb	r2, r5
 800079e:	8919      	ldrh	r1, [r3, #8]
 80007a0:	68d8      	ldr	r0, [r3, #12]
 80007a2:	f000 fd09 	bl	80011b8 <HAL_GPIO_WritePin>
 80007a6:	6823      	ldr	r3, [r4, #0]
 80007a8:	8919      	ldrh	r1, [r3, #8]
 80007aa:	68d8      	ldr	r0, [r3, #12]
 80007ac:	f000 fcfe 	bl	80011ac <HAL_GPIO_ReadPin>
 80007b0:	490b      	ldr	r1, [pc, #44]	@ (80007e0 <press_m18_key+0x70>)
 80007b2:	4602      	mov	r2, r0
 80007b4:	a80d      	add	r0, sp, #52	@ 0x34
 80007b6:	f002 ff29 	bl	800360c <siprintf>
 80007ba:	a80d      	add	r0, sp, #52	@ 0x34
 80007bc:	f7ff fd90 	bl	80002e0 <strlen>
 80007c0:	f44f 737a 	mov.w	r3, #1000	@ 0x3e8
 80007c4:	b282      	uxth	r2, r0
 80007c6:	a90d      	add	r1, sp, #52	@ 0x34
 80007c8:	4630      	mov	r0, r6
 80007ca:	f002 fc0a 	bl	8002fe2 <HAL_UART_Transmit>
 80007ce:	b01a      	add	sp, #104	@ 0x68
 80007d0:	bd70      	pop	{r4, r5, r6, pc}
 80007d2:	bf00      	nop
 80007d4:	24000000 	.word	0x24000000
 80007d8:	08003fce 	.word	0x08003fce
 80007dc:	24000094 	.word	0x24000094
 80007e0:	08003f94 	.word	0x08003f94

080007e4 <SystemClock_Config>:
 80007e4:	b530      	push	{r4, r5, lr}
 80007e6:	b09d      	sub	sp, #116	@ 0x74
 80007e8:	224c      	movs	r2, #76	@ 0x4c
 80007ea:	2100      	movs	r1, #0
 80007ec:	a809      	add	r0, sp, #36	@ 0x24
 80007ee:	f002 ff2d 	bl	800364c <memset>
 80007f2:	2220      	movs	r2, #32
 80007f4:	2100      	movs	r1, #0
 80007f6:	a801      	add	r0, sp, #4
 80007f8:	f002 ff28 	bl	800364c <memset>
 80007fc:	2002      	movs	r0, #2
 80007fe:	f000 fd6d 	bl	80012dc <HAL_PWREx_ConfigSupply>
 8000802:	2300      	movs	r3, #0
 8000804:	9300      	str	r3, [sp, #0]
 8000806:	4b1c      	ldr	r3, [pc, #112]	@ (8000878 <SystemClock_Config+0x94>)
 8000808:	6ada      	ldr	r2, [r3, #44]	@ 0x2c
 800080a:	f022 0201 	bic.w	r2, r2, #1
 800080e:	62da      	str	r2, [r3, #44]	@ 0x2c
 8000810:	6adb      	ldr	r3, [r3, #44]	@ 0x2c
 8000812:	4a1a      	ldr	r2, [pc, #104]	@ (800087c <SystemClock_Config+0x98>)
 8000814:	f003 0301 	and.w	r3, r3, #1
 8000818:	9300      	str	r3, [sp, #0]
 800081a:	6993      	ldr	r3, [r2, #24]
 800081c:	f423 4340 	bic.w	r3, r3, #49152	@ 0xc000
 8000820:	f443 4380 	orr.w	r3, r3, #16384	@ 0x4000
 8000824:	6193      	str	r3, [r2, #24]
 8000826:	6993      	ldr	r3, [r2, #24]
 8000828:	f403 4340 	and.w	r3, r3, #49152	@ 0xc000
 800082c:	9300      	str	r3, [sp, #0]
 800082e:	9b00      	ldr	r3, [sp, #0]
 8000830:	6993      	ldr	r3, [r2, #24]
 8000832:	049b      	lsls	r3, r3, #18
 8000834:	d5fc      	bpl.n	8000830 <SystemClock_Config+0x4c>
 8000836:	2322      	movs	r3, #34	@ 0x22
 8000838:	2401      	movs	r4, #1
 800083a:	2540      	movs	r5, #64	@ 0x40
 800083c:	a809      	add	r0, sp, #36	@ 0x24
 800083e:	9309      	str	r3, [sp, #36]	@ 0x24
 8000840:	2300      	movs	r3, #0
 8000842:	940f      	str	r4, [sp, #60]	@ 0x3c
 8000844:	9312      	str	r3, [sp, #72]	@ 0x48
 8000846:	e9cd 450c 	strd	r4, r5, [sp, #48]	@ 0x30
 800084a:	f000 fd73 	bl	8001334 <HAL_RCC_OscConfig>
 800084e:	b108      	cbz	r0, 8000854 <SystemClock_Config+0x70>
 8000850:	b672      	cpsid	i
 8000852:	e7fe      	b.n	8000852 <SystemClock_Config+0x6e>
 8000854:	233f      	movs	r3, #63	@ 0x3f
 8000856:	4621      	mov	r1, r4
 8000858:	e9cd 3001 	strd	r3, r0, [sp, #4]
 800085c:	e9cd 0003 	strd	r0, r0, [sp, #12]
 8000860:	e9cd 0505 	strd	r0, r5, [sp, #20]
 8000864:	e9cd 0007 	strd	r0, r0, [sp, #28]
 8000868:	a801      	add	r0, sp, #4
 800086a:	f001 f8b1 	bl	80019d0 <HAL_RCC_ClockConfig>
 800086e:	b108      	cbz	r0, 8000874 <SystemClock_Config+0x90>
 8000870:	b672      	cpsid	i
 8000872:	e7fe      	b.n	8000872 <SystemClock_Config+0x8e>
 8000874:	b01d      	add	sp, #116	@ 0x74
 8000876:	bd30      	pop	{r4, r5, pc}
 8000878:	58000400 	.word	0x58000400
 800087c:	58024800 	.word	0x58024800

08000880 <main>:
 8000880:	b530      	push	{r4, r5, lr}
 8000882:	b085      	sub	sp, #20
 8000884:	2210      	movs	r2, #16
 8000886:	2100      	movs	r1, #0
 8000888:	2400      	movs	r4, #0
 800088a:	4668      	mov	r0, sp
 800088c:	4d20      	ldr	r5, [pc, #128]	@ (8000910 <main+0x90>)
 800088e:	f002 fedd 	bl	800364c <memset>
 8000892:	f000 fb59 	bl	8000f48 <HAL_MPU_Disable>
 8000896:	2301      	movs	r3, #1
 8000898:	4668      	mov	r0, sp
 800089a:	f8ad 3000 	strh.w	r3, [sp]
 800089e:	f248 731f 	movw	r3, #34591	@ 0x871f
 80008a2:	e9cd 4301 	strd	r4, r3, [sp, #4]
 80008a6:	f240 1301 	movw	r3, #257	@ 0x101
 80008aa:	9303      	str	r3, [sp, #12]
 80008ac:	f000 fb6a 	bl	8000f84 <HAL_MPU_ConfigRegion>
 80008b0:	2004      	movs	r0, #4
 80008b2:	f000 fb57 	bl	8000f64 <HAL_MPU_Enable>
 80008b6:	f000 fa89 	bl	8000dcc <HAL_Init>
 80008ba:	f7ff ff93 	bl	80007e4 <SystemClock_Config>
 80008be:	f7ff fedf 	bl	8000680 <MX_GPIO_Init>
 80008c2:	f000 f93f 	bl	8000b44 <MX_USART3_UART_Init>
 80008c6:	f000 f9b9 	bl	8000c3c <MX_USB_OTG_FS_PCD_Init>
 80008ca:	4a12      	ldr	r2, [pc, #72]	@ (8000914 <main+0x94>)
 80008cc:	466b      	mov	r3, sp
 80008ce:	6810      	ldr	r0, [r2, #0]
 80008d0:	6851      	ldr	r1, [r2, #4]
 80008d2:	c303      	stmia	r3!, {r0, r1}
 80008d4:	6890      	ldr	r0, [r2, #8]
 80008d6:	6018      	str	r0, [r3, #0]
 80008d8:	4668      	mov	r0, sp
 80008da:	f88d 400c 	strb.w	r4, [sp, #12]
 80008de:	f7ff fcff 	bl	80002e0 <strlen>
 80008e2:	2364      	movs	r3, #100	@ 0x64
 80008e4:	b282      	uxth	r2, r0
 80008e6:	4669      	mov	r1, sp
 80008e8:	480b      	ldr	r0, [pc, #44]	@ (8000918 <main+0x98>)
 80008ea:	f002 fb7a 	bl	8002fe2 <HAL_UART_Transmit>
 80008ee:	682b      	ldr	r3, [r5, #0]
 80008f0:	781b      	ldrb	r3, [r3, #0]
 80008f2:	b903      	cbnz	r3, 80008f6 <main+0x76>
 80008f4:	e7fe      	b.n	80008f4 <main+0x74>
 80008f6:	2000      	movs	r0, #0
 80008f8:	f7ff ff3a 	bl	8000770 <press_m18_key>
 80008fc:	20c8      	movs	r0, #200	@ 0xc8
 80008fe:	f000 faa5 	bl	8000e4c <HAL_Delay>
 8000902:	2001      	movs	r0, #1
 8000904:	f7ff ff34 	bl	8000770 <press_m18_key>
 8000908:	682b      	ldr	r3, [r5, #0]
 800090a:	701c      	strb	r4, [r3, #0]
 800090c:	e7ef      	b.n	80008ee <main+0x6e>
 800090e:	bf00      	nop
 8000910:	24000000 	.word	0x24000000
 8000914:	08003f64 	.word	0x08003f64
 8000918:	24000094 	.word	0x24000094

0800091c <Error_Handler>:
 800091c:	b672      	cpsid	i
 800091e:	e7fe      	b.n	800091e <Error_Handler+0x2>

08000920 <HAL_MspInit>:
 8000920:	4b07      	ldr	r3, [pc, #28]	@ (8000940 <HAL_MspInit+0x20>)
 8000922:	b082      	sub	sp, #8
 8000924:	f8d3 20f4 	ldr.w	r2, [r3, #244]	@ 0xf4
 8000928:	f042 0202 	orr.w	r2, r2, #2
 800092c:	f8c3 20f4 	str.w	r2, [r3, #244]	@ 0xf4
 8000930:	f8d3 30f4 	ldr.w	r3, [r3, #244]	@ 0xf4
 8000934:	f003 0302 	and.w	r3, r3, #2
 8000938:	9301      	str	r3, [sp, #4]
 800093a:	9b01      	ldr	r3, [sp, #4]
 800093c:	b002      	add	sp, #8
 800093e:	4770      	bx	lr
 8000940:	58024400 	.word	0x58024400

08000944 <HAL_GPIO_EXTI_Callback>:
 8000944:	b530      	push	{r4, r5, lr}
 8000946:	4a2e      	ldr	r2, [pc, #184]	@ (8000a00 <HAL_GPIO_EXTI_Callback+0xbc>)
 8000948:	b099      	sub	sp, #100	@ 0x64
 800094a:	4604      	mov	r4, r0
 800094c:	6851      	ldr	r1, [r2, #4]
 800094e:	ab01      	add	r3, sp, #4
 8000950:	6810      	ldr	r0, [r2, #0]
 8000952:	c303      	stmia	r3!, {r0, r1}
 8000954:	6890      	ldr	r0, [r2, #8]
 8000956:	6018      	str	r0, [r3, #0]
 8000958:	a801      	add	r0, sp, #4
 800095a:	f7ff fcc1 	bl	80002e0 <strlen>
 800095e:	f44f 737a 	mov.w	r3, #1000	@ 0x3e8
 8000962:	b282      	uxth	r2, r0
 8000964:	a901      	add	r1, sp, #4
 8000966:	4827      	ldr	r0, [pc, #156]	@ (8000a04 <HAL_GPIO_EXTI_Callback+0xc0>)
 8000968:	f002 fb3b 	bl	8002fe2 <HAL_UART_Transmit>
 800096c:	f5b4 5f00 	cmp.w	r4, #8192	@ 0x2000
 8000970:	d11a      	bne.n	80009a8 <HAL_GPIO_EXTI_Callback+0x64>
 8000972:	4621      	mov	r1, r4
 8000974:	4824      	ldr	r0, [pc, #144]	@ (8000a08 <HAL_GPIO_EXTI_Callback+0xc4>)
 8000976:	f000 fc19 	bl	80011ac <HAL_GPIO_ReadPin>
 800097a:	2801      	cmp	r0, #1
 800097c:	4c23      	ldr	r4, [pc, #140]	@ (8000a0c <HAL_GPIO_EXTI_Callback+0xc8>)
 800097e:	d115      	bne.n	80009ac <HAL_GPIO_EXTI_Callback+0x68>
 8000980:	6825      	ldr	r5, [r4, #0]
 8000982:	f000 fa5d 	bl	8000e40 <HAL_GetTick>
 8000986:	6823      	ldr	r3, [r4, #0]
 8000988:	6068      	str	r0, [r5, #4]
 800098a:	a804      	add	r0, sp, #16
 800098c:	685a      	ldr	r2, [r3, #4]
 800098e:	4920      	ldr	r1, [pc, #128]	@ (8000a10 <HAL_GPIO_EXTI_Callback+0xcc>)
 8000990:	f002 fe3c 	bl	800360c <siprintf>
 8000994:	a804      	add	r0, sp, #16
 8000996:	f7ff fca3 	bl	80002e0 <strlen>
 800099a:	f44f 737a 	mov.w	r3, #1000	@ 0x3e8
 800099e:	b282      	uxth	r2, r0
 80009a0:	a904      	add	r1, sp, #16
 80009a2:	4818      	ldr	r0, [pc, #96]	@ (8000a04 <HAL_GPIO_EXTI_Callback+0xc0>)
 80009a4:	f002 fb1d 	bl	8002fe2 <HAL_UART_Transmit>
 80009a8:	b019      	add	sp, #100	@ 0x64
 80009aa:	bd30      	pop	{r4, r5, pc}
 80009ac:	f000 fa48 	bl	8000e40 <HAL_GetTick>
 80009b0:	6824      	ldr	r4, [r4, #0]
 80009b2:	6863      	ldr	r3, [r4, #4]
 80009b4:	1ac2      	subs	r2, r0, r3
 80009b6:	f104 0308 	add.w	r3, r4, #8
 80009ba:	f5b2 7ffa 	cmp.w	r2, #500	@ 0x1f4
 80009be:	d20b      	bcs.n	80009d8 <HAL_GPIO_EXTI_Callback+0x94>
 80009c0:	2101      	movs	r1, #1
 80009c2:	7021      	strb	r1, [r4, #0]
 80009c4:	4913      	ldr	r1, [pc, #76]	@ (8000a14 <HAL_GPIO_EXTI_Callback+0xd0>)
 80009c6:	c903      	ldmia	r1, {r0, r1}
 80009c8:	e883 0003 	stmia.w	r3, {r0, r1}
 80009cc:	4912      	ldr	r1, [pc, #72]	@ (8000a18 <HAL_GPIO_EXTI_Callback+0xd4>)
 80009ce:	a804      	add	r0, sp, #16
 80009d0:	7823      	ldrb	r3, [r4, #0]
 80009d2:	f002 fe1b 	bl	800360c <siprintf>
 80009d6:	e7dd      	b.n	8000994 <HAL_GPIO_EXTI_Callback+0x50>
 80009d8:	f240 51db 	movw	r1, #1499	@ 0x5db
 80009dc:	428a      	cmp	r2, r1
 80009de:	d803      	bhi.n	80009e8 <HAL_GPIO_EXTI_Callback+0xa4>
 80009e0:	2102      	movs	r1, #2
 80009e2:	7021      	strb	r1, [r4, #0]
 80009e4:	490d      	ldr	r1, [pc, #52]	@ (8000a1c <HAL_GPIO_EXTI_Callback+0xd8>)
 80009e6:	e7ee      	b.n	80009c6 <HAL_GPIO_EXTI_Callback+0x82>
 80009e8:	f640 11c3 	movw	r1, #2499	@ 0x9c3
 80009ec:	428a      	cmp	r2, r1
 80009ee:	bf95      	itete	ls
 80009f0:	2103      	movls	r1, #3
 80009f2:	2104      	movhi	r1, #4
 80009f4:	7021      	strbls	r1, [r4, #0]
 80009f6:	7021      	strbhi	r1, [r4, #0]
 80009f8:	bf94      	ite	ls
 80009fa:	4909      	ldrls	r1, [pc, #36]	@ (8000a20 <HAL_GPIO_EXTI_Callback+0xdc>)
 80009fc:	4909      	ldrhi	r1, [pc, #36]	@ (8000a24 <HAL_GPIO_EXTI_Callback+0xe0>)
 80009fe:	e7e2      	b.n	80009c6 <HAL_GPIO_EXTI_Callback+0x82>
 8000a00:	08003fdb 	.word	0x08003fdb
 8000a04:	24000094 	.word	0x24000094
 8000a08:	58020800 	.word	0x58020800
 8000a0c:	24000000 	.word	0x24000000
 8000a10:	08003faa 	.word	0x08003faa
 8000a14:	08003f74 	.word	0x08003f74
 8000a18:	08003fbe 	.word	0x08003fbe
 8000a1c:	08003f7c 	.word	0x08003f7c
 8000a20:	08003f84 	.word	0x08003f84
 8000a24:	08003f8c 	.word	0x08003f8c

08000a28 <EXTI15_10_IRQHandler>:
 8000a28:	f44f 5000 	mov.w	r0, #8192	@ 0x2000
 8000a2c:	f000 bbc9 	b.w	80011c2 <HAL_GPIO_EXTI_IRQHandler>

08000a30 <NMI_Handler>:
 8000a30:	e7fe      	b.n	8000a30 <NMI_Handler>

08000a32 <HardFault_Handler>:
 8000a32:	e7fe      	b.n	8000a32 <HardFault_Handler>

08000a34 <MemManage_Handler>:
 8000a34:	e7fe      	b.n	8000a34 <MemManage_Handler>

08000a36 <BusFault_Handler>:
 8000a36:	e7fe      	b.n	8000a36 <BusFault_Handler>

08000a38 <UsageFault_Handler>:
 8000a38:	e7fe      	b.n	8000a38 <UsageFault_Handler>

08000a3a <SVC_Handler>:
 8000a3a:	4770      	bx	lr

08000a3c <DebugMon_Handler>:
 8000a3c:	4770      	bx	lr

08000a3e <PendSV_Handler>:
 8000a3e:	4770      	bx	lr

08000a40 <SysTick_Handler>:
 8000a40:	f000 b9f2 	b.w	8000e28 <HAL_IncTick>

08000a44 <_sbrk>:
 8000a44:	4a0b      	ldr	r2, [pc, #44]	@ (8000a74 <_sbrk+0x30>)
 8000a46:	4603      	mov	r3, r0
 8000a48:	6811      	ldr	r1, [r2, #0]
 8000a4a:	b510      	push	{r4, lr}
 8000a4c:	b909      	cbnz	r1, 8000a52 <_sbrk+0xe>
 8000a4e:	490a      	ldr	r1, [pc, #40]	@ (8000a78 <_sbrk+0x34>)
 8000a50:	6011      	str	r1, [r2, #0]
 8000a52:	6810      	ldr	r0, [r2, #0]
 8000a54:	4909      	ldr	r1, [pc, #36]	@ (8000a7c <_sbrk+0x38>)
 8000a56:	4c0a      	ldr	r4, [pc, #40]	@ (8000a80 <_sbrk+0x3c>)
 8000a58:	4403      	add	r3, r0
 8000a5a:	1b09      	subs	r1, r1, r4
 8000a5c:	428b      	cmp	r3, r1
 8000a5e:	d906      	bls.n	8000a6e <_sbrk+0x2a>
 8000a60:	f002 fdfc 	bl	800365c <__errno>
 8000a64:	230c      	movs	r3, #12
 8000a66:	6003      	str	r3, [r0, #0]
 8000a68:	f04f 30ff 	mov.w	r0, #4294967295
 8000a6c:	bd10      	pop	{r4, pc}
 8000a6e:	6013      	str	r3, [r2, #0]
 8000a70:	e7fc      	b.n	8000a6c <_sbrk+0x28>
 8000a72:	bf00      	nop
 8000a74:	24000090 	.word	0x24000090
 8000a78:	24000758 	.word	0x24000758
 8000a7c:	24080000 	.word	0x24080000
 8000a80:	00000400 	.word	0x00000400

08000a84 <SystemInit>:
 8000a84:	4a25      	ldr	r2, [pc, #148]	@ (8000b1c <SystemInit+0x98>)
 8000a86:	f8d2 3088 	ldr.w	r3, [r2, #136]	@ 0x88
 8000a8a:	f443 0370 	orr.w	r3, r3, #15728640	@ 0xf00000
 8000a8e:	f8c2 3088 	str.w	r3, [r2, #136]	@ 0x88
 8000a92:	4a23      	ldr	r2, [pc, #140]	@ (8000b20 <SystemInit+0x9c>)
 8000a94:	6813      	ldr	r3, [r2, #0]
 8000a96:	f003 030f 	and.w	r3, r3, #15
 8000a9a:	2b06      	cmp	r3, #6
 8000a9c:	d805      	bhi.n	8000aaa <SystemInit+0x26>
 8000a9e:	6813      	ldr	r3, [r2, #0]
 8000aa0:	f023 030f 	bic.w	r3, r3, #15
 8000aa4:	f043 0307 	orr.w	r3, r3, #7
 8000aa8:	6013      	str	r3, [r2, #0]
 8000aaa:	4b1e      	ldr	r3, [pc, #120]	@ (8000b24 <SystemInit+0xa0>)
 8000aac:	681a      	ldr	r2, [r3, #0]
 8000aae:	f042 0201 	orr.w	r2, r2, #1
 8000ab2:	601a      	str	r2, [r3, #0]
 8000ab4:	2200      	movs	r2, #0
 8000ab6:	611a      	str	r2, [r3, #16]
 8000ab8:	4a1b      	ldr	r2, [pc, #108]	@ (8000b28 <SystemInit+0xa4>)
 8000aba:	6819      	ldr	r1, [r3, #0]
 8000abc:	400a      	ands	r2, r1
 8000abe:	4918      	ldr	r1, [pc, #96]	@ (8000b20 <SystemInit+0x9c>)
 8000ac0:	601a      	str	r2, [r3, #0]
 8000ac2:	680a      	ldr	r2, [r1, #0]
 8000ac4:	0712      	lsls	r2, r2, #28
 8000ac6:	d505      	bpl.n	8000ad4 <SystemInit+0x50>
 8000ac8:	680a      	ldr	r2, [r1, #0]
 8000aca:	f022 020f 	bic.w	r2, r2, #15
 8000ace:	f042 0207 	orr.w	r2, r2, #7
 8000ad2:	600a      	str	r2, [r1, #0]
 8000ad4:	2200      	movs	r2, #0
 8000ad6:	4915      	ldr	r1, [pc, #84]	@ (8000b2c <SystemInit+0xa8>)
 8000ad8:	619a      	str	r2, [r3, #24]
 8000ada:	61da      	str	r2, [r3, #28]
 8000adc:	621a      	str	r2, [r3, #32]
 8000ade:	6299      	str	r1, [r3, #40]	@ 0x28
 8000ae0:	4913      	ldr	r1, [pc, #76]	@ (8000b30 <SystemInit+0xac>)
 8000ae2:	62d9      	str	r1, [r3, #44]	@ 0x2c
 8000ae4:	4913      	ldr	r1, [pc, #76]	@ (8000b34 <SystemInit+0xb0>)
 8000ae6:	6319      	str	r1, [r3, #48]	@ 0x30
 8000ae8:	635a      	str	r2, [r3, #52]	@ 0x34
 8000aea:	6399      	str	r1, [r3, #56]	@ 0x38
 8000aec:	63da      	str	r2, [r3, #60]	@ 0x3c
 8000aee:	6419      	str	r1, [r3, #64]	@ 0x40
 8000af0:	645a      	str	r2, [r3, #68]	@ 0x44
 8000af2:	6819      	ldr	r1, [r3, #0]
 8000af4:	f421 2180 	bic.w	r1, r1, #262144	@ 0x40000
 8000af8:	6019      	str	r1, [r3, #0]
 8000afa:	661a      	str	r2, [r3, #96]	@ 0x60
 8000afc:	4b0e      	ldr	r3, [pc, #56]	@ (8000b38 <SystemInit+0xb4>)
 8000afe:	681b      	ldr	r3, [r3, #0]
 8000b00:	0c1b      	lsrs	r3, r3, #16
 8000b02:	041b      	lsls	r3, r3, #16
 8000b04:	f1b3 5f00 	cmp.w	r3, #536870912	@ 0x20000000
 8000b08:	d203      	bcs.n	8000b12 <SystemInit+0x8e>
 8000b0a:	4b0c      	ldr	r3, [pc, #48]	@ (8000b3c <SystemInit+0xb8>)
 8000b0c:	2201      	movs	r2, #1
 8000b0e:	f8c3 2108 	str.w	r2, [r3, #264]	@ 0x108
 8000b12:	4b0b      	ldr	r3, [pc, #44]	@ (8000b40 <SystemInit+0xbc>)
 8000b14:	f243 02d2 	movw	r2, #12498	@ 0x30d2
 8000b18:	601a      	str	r2, [r3, #0]
 8000b1a:	4770      	bx	lr
 8000b1c:	e000ed00 	.word	0xe000ed00
 8000b20:	52002000 	.word	0x52002000
 8000b24:	58024400 	.word	0x58024400
 8000b28:	eaf6ed7f 	.word	0xeaf6ed7f
 8000b2c:	02020200 	.word	0x02020200
 8000b30:	01ff0000 	.word	0x01ff0000
 8000b34:	01010280 	.word	0x01010280
 8000b38:	5c001000 	.word	0x5c001000
 8000b3c:	51008000 	.word	0x51008000
 8000b40:	52004000 	.word	0x52004000

08000b44 <MX_USART3_UART_Init>:
 8000b44:	b508      	push	{r3, lr}
 8000b46:	4816      	ldr	r0, [pc, #88]	@ (8000ba0 <MX_USART3_UART_Init+0x5c>)
 8000b48:	f44f 33e1 	mov.w	r3, #115200	@ 0x1c200
 8000b4c:	4a15      	ldr	r2, [pc, #84]	@ (8000ba4 <MX_USART3_UART_Init+0x60>)
 8000b4e:	e9c0 2300 	strd	r2, r3, [r0]
 8000b52:	2300      	movs	r3, #0
 8000b54:	220c      	movs	r2, #12
 8000b56:	e9c0 3302 	strd	r3, r3, [r0, #8]
 8000b5a:	6103      	str	r3, [r0, #16]
 8000b5c:	e9c0 2305 	strd	r2, r3, [r0, #20]
 8000b60:	e9c0 3307 	strd	r3, r3, [r0, #28]
 8000b64:	e9c0 3309 	strd	r3, r3, [r0, #36]	@ 0x24
 8000b68:	f002 faeb 	bl	8003142 <HAL_UART_Init>
 8000b6c:	b108      	cbz	r0, 8000b72 <MX_USART3_UART_Init+0x2e>
 8000b6e:	f7ff fed5 	bl	800091c <Error_Handler>
 8000b72:	2100      	movs	r1, #0
 8000b74:	480a      	ldr	r0, [pc, #40]	@ (8000ba0 <MX_USART3_UART_Init+0x5c>)
 8000b76:	f002 fb52 	bl	800321e <HAL_UARTEx_SetTxFifoThreshold>
 8000b7a:	b108      	cbz	r0, 8000b80 <MX_USART3_UART_Init+0x3c>
 8000b7c:	f7ff fece 	bl	800091c <Error_Handler>
 8000b80:	2100      	movs	r1, #0
 8000b82:	4807      	ldr	r0, [pc, #28]	@ (8000ba0 <MX_USART3_UART_Init+0x5c>)
 8000b84:	f002 fb6b 	bl	800325e <HAL_UARTEx_SetRxFifoThreshold>
 8000b88:	b108      	cbz	r0, 8000b8e <MX_USART3_UART_Init+0x4a>
 8000b8a:	f7ff fec7 	bl	800091c <Error_Handler>
 8000b8e:	4804      	ldr	r0, [pc, #16]	@ (8000ba0 <MX_USART3_UART_Init+0x5c>)
 8000b90:	f002 fb2a 	bl	80031e8 <HAL_UARTEx_DisableFifoMode>
 8000b94:	b118      	cbz	r0, 8000b9e <MX_USART3_UART_Init+0x5a>
 8000b96:	e8bd 4008 	ldmia.w	sp!, {r3, lr}
 8000b9a:	f7ff bebf 	b.w	800091c <Error_Handler>
 8000b9e:	bd08      	pop	{r3, pc}
 8000ba0:	24000094 	.word	0x24000094
 8000ba4:	40004800 	.word	0x40004800

08000ba8 <HAL_UART_MspInit>:
 8000ba8:	b510      	push	{r4, lr}
 8000baa:	b0b8      	sub	sp, #224	@ 0xe0
 8000bac:	4604      	mov	r4, r0
 8000bae:	2214      	movs	r2, #20
 8000bb0:	2100      	movs	r1, #0
 8000bb2:	a803      	add	r0, sp, #12
 8000bb4:	f002 fd4a 	bl	800364c <memset>
 8000bb8:	22c0      	movs	r2, #192	@ 0xc0
 8000bba:	2100      	movs	r1, #0
 8000bbc:	a808      	add	r0, sp, #32
 8000bbe:	f002 fd45 	bl	800364c <memset>
 8000bc2:	6822      	ldr	r2, [r4, #0]
 8000bc4:	4b1a      	ldr	r3, [pc, #104]	@ (8000c30 <HAL_UART_MspInit+0x88>)
 8000bc6:	429a      	cmp	r2, r3
 8000bc8:	d130      	bne.n	8000c2c <HAL_UART_MspInit+0x84>
 8000bca:	2202      	movs	r2, #2
 8000bcc:	2300      	movs	r3, #0
 8000bce:	a808      	add	r0, sp, #32
 8000bd0:	e9cd 2308 	strd	r2, r3, [sp, #32]
 8000bd4:	f001 f958 	bl	8001e88 <HAL_RCCEx_PeriphCLKConfig>
 8000bd8:	b108      	cbz	r0, 8000bde <HAL_UART_MspInit+0x36>
 8000bda:	f7ff fe9f 	bl	800091c <Error_Handler>
 8000bde:	4b15      	ldr	r3, [pc, #84]	@ (8000c34 <HAL_UART_MspInit+0x8c>)
 8000be0:	a903      	add	r1, sp, #12
 8000be2:	4815      	ldr	r0, [pc, #84]	@ (8000c38 <HAL_UART_MspInit+0x90>)
 8000be4:	f8d3 20e8 	ldr.w	r2, [r3, #232]	@ 0xe8
 8000be8:	f442 2280 	orr.w	r2, r2, #262144	@ 0x40000
 8000bec:	f8c3 20e8 	str.w	r2, [r3, #232]	@ 0xe8
 8000bf0:	f8d3 20e8 	ldr.w	r2, [r3, #232]	@ 0xe8
 8000bf4:	f402 2280 	and.w	r2, r2, #262144	@ 0x40000
 8000bf8:	9201      	str	r2, [sp, #4]
 8000bfa:	9a01      	ldr	r2, [sp, #4]
 8000bfc:	f8d3 20e0 	ldr.w	r2, [r3, #224]	@ 0xe0
 8000c00:	f042 0208 	orr.w	r2, r2, #8
 8000c04:	f8c3 20e0 	str.w	r2, [r3, #224]	@ 0xe0
 8000c08:	f44f 7240 	mov.w	r2, #768	@ 0x300
 8000c0c:	f8d3 30e0 	ldr.w	r3, [r3, #224]	@ 0xe0
 8000c10:	f003 0308 	and.w	r3, r3, #8
 8000c14:	9302      	str	r3, [sp, #8]
 8000c16:	9b02      	ldr	r3, [sp, #8]
 8000c18:	2302      	movs	r3, #2
 8000c1a:	e9cd 2303 	strd	r2, r3, [sp, #12]
 8000c1e:	2300      	movs	r3, #0
 8000c20:	e9cd 3305 	strd	r3, r3, [sp, #20]
 8000c24:	2307      	movs	r3, #7
 8000c26:	9307      	str	r3, [sp, #28]
 8000c28:	f000 f9d8 	bl	8000fdc <HAL_GPIO_Init>
 8000c2c:	b038      	add	sp, #224	@ 0xe0
 8000c2e:	bd10      	pop	{r4, pc}
 8000c30:	40004800 	.word	0x40004800
 8000c34:	58024400 	.word	0x58024400
 8000c38:	58020c00 	.word	0x58020c00

08000c3c <MX_USB_OTG_FS_PCD_Init>:
 8000c3c:	b508      	push	{r3, lr}
 8000c3e:	480b      	ldr	r0, [pc, #44]	@ (8000c6c <MX_USB_OTG_FS_PCD_Init+0x30>)
 8000c40:	4b0b      	ldr	r3, [pc, #44]	@ (8000c70 <MX_USB_OTG_FS_PCD_Init+0x34>)
 8000c42:	6003      	str	r3, [r0, #0]
 8000c44:	2309      	movs	r3, #9
 8000c46:	7103      	strb	r3, [r0, #4]
 8000c48:	f44f 7300 	mov.w	r3, #512	@ 0x200
 8000c4c:	80c3      	strh	r3, [r0, #6]
 8000c4e:	2302      	movs	r3, #2
 8000c50:	7243      	strb	r3, [r0, #9]
 8000c52:	2301      	movs	r3, #1
 8000c54:	8143      	strh	r3, [r0, #10]
 8000c56:	4b07      	ldr	r3, [pc, #28]	@ (8000c74 <MX_USB_OTG_FS_PCD_Init+0x38>)
 8000c58:	60c3      	str	r3, [r0, #12]
 8000c5a:	f000 fabe 	bl	80011da <HAL_PCD_Init>
 8000c5e:	b118      	cbz	r0, 8000c68 <MX_USB_OTG_FS_PCD_Init+0x2c>
 8000c60:	e8bd 4008 	ldmia.w	sp!, {r3, lr}
 8000c64:	f7ff be5a 	b.w	800091c <Error_Handler>
 8000c68:	bd08      	pop	{r3, pc}
 8000c6a:	bf00      	nop
 8000c6c:	24000128 	.word	0x24000128
 8000c70:	40080000 	.word	0x40080000
 8000c74:	00010100 	.word	0x00010100

08000c78 <HAL_PCD_MspInit>:
 8000c78:	b530      	push	{r4, r5, lr}
 8000c7a:	b0b9      	sub	sp, #228	@ 0xe4
 8000c7c:	4604      	mov	r4, r0
 8000c7e:	2214      	movs	r2, #20
 8000c80:	2100      	movs	r1, #0
 8000c82:	a803      	add	r0, sp, #12
 8000c84:	f002 fce2 	bl	800364c <memset>
 8000c88:	22c0      	movs	r2, #192	@ 0xc0
 8000c8a:	2100      	movs	r1, #0
 8000c8c:	a808      	add	r0, sp, #32
 8000c8e:	f002 fcdd 	bl	800364c <memset>
 8000c92:	6822      	ldr	r2, [r4, #0]
 8000c94:	4b22      	ldr	r3, [pc, #136]	@ (8000d20 <HAL_PCD_MspInit+0xa8>)
 8000c96:	429a      	cmp	r2, r3
 8000c98:	d13f      	bne.n	8000d1a <HAL_PCD_MspInit+0xa2>
 8000c9a:	2300      	movs	r3, #0
 8000c9c:	f44f 2280 	mov.w	r2, #262144	@ 0x40000
 8000ca0:	a808      	add	r0, sp, #32
 8000ca2:	e9cd 2308 	strd	r2, r3, [sp, #32]
 8000ca6:	f44f 1340 	mov.w	r3, #3145728	@ 0x300000
 8000caa:	932a      	str	r3, [sp, #168]	@ 0xa8
 8000cac:	f001 f8ec 	bl	8001e88 <HAL_RCCEx_PeriphCLKConfig>
 8000cb0:	b108      	cbz	r0, 8000cb6 <HAL_PCD_MspInit+0x3e>
 8000cb2:	f7ff fe33 	bl	800091c <Error_Handler>
 8000cb6:	4c1b      	ldr	r4, [pc, #108]	@ (8000d24 <HAL_PCD_MspInit+0xac>)
 8000cb8:	f000 fb34 	bl	8001324 <HAL_PWREx_EnableUSBVoltageDetector>
 8000cbc:	f44f 52c8 	mov.w	r2, #6400	@ 0x1900
 8000cc0:	2500      	movs	r5, #0
 8000cc2:	f8d4 30e0 	ldr.w	r3, [r4, #224]	@ 0xe0
 8000cc6:	a903      	add	r1, sp, #12
 8000cc8:	4817      	ldr	r0, [pc, #92]	@ (8000d28 <HAL_PCD_MspInit+0xb0>)
 8000cca:	f043 0301 	orr.w	r3, r3, #1
 8000cce:	f8c4 30e0 	str.w	r3, [r4, #224]	@ 0xe0
 8000cd2:	f8d4 30e0 	ldr.w	r3, [r4, #224]	@ 0xe0
 8000cd6:	f003 0301 	and.w	r3, r3, #1
 8000cda:	9301      	str	r3, [sp, #4]
 8000cdc:	9b01      	ldr	r3, [sp, #4]
 8000cde:	2302      	movs	r3, #2
 8000ce0:	e9cd 2303 	strd	r2, r3, [sp, #12]
 8000ce4:	230a      	movs	r3, #10
 8000ce6:	e9cd 5505 	strd	r5, r5, [sp, #20]
 8000cea:	9307      	str	r3, [sp, #28]
 8000cec:	f000 f976 	bl	8000fdc <HAL_GPIO_Init>
 8000cf0:	f44f 7300 	mov.w	r3, #512	@ 0x200
 8000cf4:	a903      	add	r1, sp, #12
 8000cf6:	480c      	ldr	r0, [pc, #48]	@ (8000d28 <HAL_PCD_MspInit+0xb0>)
 8000cf8:	9505      	str	r5, [sp, #20]
 8000cfa:	e9cd 3503 	strd	r3, r5, [sp, #12]
 8000cfe:	f000 f96d 	bl	8000fdc <HAL_GPIO_Init>
 8000d02:	f8d4 30d8 	ldr.w	r3, [r4, #216]	@ 0xd8
 8000d06:	f043 6300 	orr.w	r3, r3, #134217728	@ 0x8000000
 8000d0a:	f8c4 30d8 	str.w	r3, [r4, #216]	@ 0xd8
 8000d0e:	f8d4 30d8 	ldr.w	r3, [r4, #216]	@ 0xd8
 8000d12:	f003 6300 	and.w	r3, r3, #134217728	@ 0x8000000
 8000d16:	9302      	str	r3, [sp, #8]
 8000d18:	9b02      	ldr	r3, [sp, #8]
 8000d1a:	b039      	add	sp, #228	@ 0xe4
 8000d1c:	bd30      	pop	{r4, r5, pc}
 8000d1e:	bf00      	nop
 8000d20:	40080000 	.word	0x40080000
 8000d24:	58024400 	.word	0x58024400
 8000d28:	58020000 	.word	0x58020000

08000d2c <Reset_Handler>:
 8000d2c:	f8df d034 	ldr.w	sp, [pc, #52]	@ 8000d64 <LoopFillZerobss+0xe>
 8000d30:	f7ff fea8 	bl	8000a84 <SystemInit>
 8000d34:	480c      	ldr	r0, [pc, #48]	@ (8000d68 <LoopFillZerobss+0x12>)
 8000d36:	490d      	ldr	r1, [pc, #52]	@ (8000d6c <LoopFillZerobss+0x16>)
 8000d38:	4a0d      	ldr	r2, [pc, #52]	@ (8000d70 <LoopFillZerobss+0x1a>)
 8000d3a:	2300      	movs	r3, #0
 8000d3c:	e002      	b.n	8000d44 <LoopCopyDataInit>

08000d3e <CopyDataInit>:
 8000d3e:	58d4      	ldr	r4, [r2, r3]
 8000d40:	50c4      	str	r4, [r0, r3]
 8000d42:	3304      	adds	r3, #4

08000d44 <LoopCopyDataInit>:
 8000d44:	18c4      	adds	r4, r0, r3
 8000d46:	428c      	cmp	r4, r1
 8000d48:	d3f9      	bcc.n	8000d3e <CopyDataInit>
 8000d4a:	4a0a      	ldr	r2, [pc, #40]	@ (8000d74 <LoopFillZerobss+0x1e>)
 8000d4c:	4c0a      	ldr	r4, [pc, #40]	@ (8000d78 <LoopFillZerobss+0x22>)
 8000d4e:	2300      	movs	r3, #0
 8000d50:	e001      	b.n	8000d56 <LoopFillZerobss>

08000d52 <FillZerobss>:
 8000d52:	6013      	str	r3, [r2, #0]
 8000d54:	3204      	adds	r2, #4

08000d56 <LoopFillZerobss>:
 8000d56:	42a2      	cmp	r2, r4
 8000d58:	d3fb      	bcc.n	8000d52 <FillZerobss>
 8000d5a:	f002 fc85 	bl	8003668 <__libc_init_array>
 8000d5e:	f7ff fd8f 	bl	8000880 <main>
 8000d62:	4770      	bx	lr
 8000d64:	24080000 	.word	0x24080000
 8000d68:	24000000 	.word	0x24000000
 8000d6c:	24000074 	.word	0x24000074
 8000d70:	08004064 	.word	0x08004064
 8000d74:	24000074 	.word	0x24000074
 8000d78:	24000758 	.word	0x24000758

08000d7c <ADC3_IRQHandler>:
 8000d7c:	e7fe      	b.n	8000d7c <ADC3_IRQHandler>
	...

08000d80 <HAL_InitTick>:
 8000d80:	b538      	push	{r3, r4, r5, lr}
 8000d82:	4b0f      	ldr	r3, [pc, #60]	@ (8000dc0 <HAL_InitTick+0x40>)
 8000d84:	4605      	mov	r5, r0
 8000d86:	781a      	ldrb	r2, [r3, #0]
 8000d88:	b90a      	cbnz	r2, 8000d8e <HAL_InitTick+0xe>
 8000d8a:	2001      	movs	r0, #1
 8000d8c:	bd38      	pop	{r3, r4, r5, pc}
 8000d8e:	f44f 737a 	mov.w	r3, #1000	@ 0x3e8
 8000d92:	fbb3 f3f2 	udiv	r3, r3, r2
 8000d96:	4a0b      	ldr	r2, [pc, #44]	@ (8000dc4 <HAL_InitTick+0x44>)
 8000d98:	6810      	ldr	r0, [r2, #0]
 8000d9a:	fbb0 f0f3 	udiv	r0, r0, r3
 8000d9e:	f000 f8bf 	bl	8000f20 <HAL_SYSTICK_Config>
 8000da2:	4604      	mov	r4, r0
 8000da4:	2800      	cmp	r0, #0
 8000da6:	d1f0      	bne.n	8000d8a <HAL_InitTick+0xa>
 8000da8:	2d0f      	cmp	r5, #15
 8000daa:	d8ee      	bhi.n	8000d8a <HAL_InitTick+0xa>
 8000dac:	4602      	mov	r2, r0
 8000dae:	4629      	mov	r1, r5
 8000db0:	f04f 30ff 	mov.w	r0, #4294967295
 8000db4:	f000 f874 	bl	8000ea0 <HAL_NVIC_SetPriority>
 8000db8:	4b03      	ldr	r3, [pc, #12]	@ (8000dc8 <HAL_InitTick+0x48>)
 8000dba:	4620      	mov	r0, r4
 8000dbc:	601d      	str	r5, [r3, #0]
 8000dbe:	e7e5      	b.n	8000d8c <HAL_InitTick+0xc>
 8000dc0:	2400001c 	.word	0x2400001c
 8000dc4:	24000018 	.word	0x24000018
 8000dc8:	24000020 	.word	0x24000020

08000dcc <HAL_Init>:
 8000dcc:	b510      	push	{r4, lr}
 8000dce:	2003      	movs	r0, #3
 8000dd0:	f000 f854 	bl	8000e7c <HAL_NVIC_SetPriorityGrouping>
 8000dd4:	f000 fd5a 	bl	800188c <HAL_RCC_GetSysClockFreq>
 8000dd8:	490f      	ldr	r1, [pc, #60]	@ (8000e18 <HAL_Init+0x4c>)
 8000dda:	4a10      	ldr	r2, [pc, #64]	@ (8000e1c <HAL_Init+0x50>)
 8000ddc:	698b      	ldr	r3, [r1, #24]
 8000dde:	f3c3 2303 	ubfx	r3, r3, #8, #4
 8000de2:	5cd3      	ldrb	r3, [r2, r3]
 8000de4:	f003 031f 	and.w	r3, r3, #31
 8000de8:	40d8      	lsrs	r0, r3
 8000dea:	698b      	ldr	r3, [r1, #24]
 8000dec:	f003 030f 	and.w	r3, r3, #15
 8000df0:	5cd3      	ldrb	r3, [r2, r3]
 8000df2:	4a0b      	ldr	r2, [pc, #44]	@ (8000e20 <HAL_Init+0x54>)
 8000df4:	f003 031f 	and.w	r3, r3, #31
 8000df8:	fa20 f303 	lsr.w	r3, r0, r3
 8000dfc:	6013      	str	r3, [r2, #0]
 8000dfe:	4b09      	ldr	r3, [pc, #36]	@ (8000e24 <HAL_Init+0x58>)
 8000e00:	6018      	str	r0, [r3, #0]
 8000e02:	200f      	movs	r0, #15
 8000e04:	f7ff ffbc 	bl	8000d80 <HAL_InitTick>
 8000e08:	4604      	mov	r4, r0
 8000e0a:	b918      	cbnz	r0, 8000e14 <HAL_Init+0x48>
 8000e0c:	f7ff fd88 	bl	8000920 <HAL_MspInit>
 8000e10:	4620      	mov	r0, r4
 8000e12:	bd10      	pop	{r4, pc}
 8000e14:	2401      	movs	r4, #1
 8000e16:	e7fb      	b.n	8000e10 <HAL_Init+0x44>
 8000e18:	58024400 	.word	0x58024400
 8000e1c:	08003fe7 	.word	0x08003fe7
 8000e20:	24000014 	.word	0x24000014
 8000e24:	24000018 	.word	0x24000018

08000e28 <HAL_IncTick>:
 8000e28:	4a03      	ldr	r2, [pc, #12]	@ (8000e38 <HAL_IncTick+0x10>)
 8000e2a:	4b04      	ldr	r3, [pc, #16]	@ (8000e3c <HAL_IncTick+0x14>)
 8000e2c:	6811      	ldr	r1, [r2, #0]
 8000e2e:	781b      	ldrb	r3, [r3, #0]
 8000e30:	440b      	add	r3, r1
 8000e32:	6013      	str	r3, [r2, #0]
 8000e34:	4770      	bx	lr
 8000e36:	bf00      	nop
 8000e38:	2400060c 	.word	0x2400060c
 8000e3c:	2400001c 	.word	0x2400001c

08000e40 <HAL_GetTick>:
 8000e40:	4b01      	ldr	r3, [pc, #4]	@ (8000e48 <HAL_GetTick+0x8>)
 8000e42:	6818      	ldr	r0, [r3, #0]
 8000e44:	4770      	bx	lr
 8000e46:	bf00      	nop
 8000e48:	2400060c 	.word	0x2400060c

08000e4c <HAL_Delay>:
 8000e4c:	b538      	push	{r3, r4, r5, lr}
 8000e4e:	4604      	mov	r4, r0
 8000e50:	f7ff fff6 	bl	8000e40 <HAL_GetTick>
 8000e54:	4605      	mov	r5, r0
 8000e56:	1c63      	adds	r3, r4, #1
 8000e58:	bf1e      	ittt	ne
 8000e5a:	4b04      	ldrne	r3, [pc, #16]	@ (8000e6c <HAL_Delay+0x20>)
 8000e5c:	781b      	ldrbne	r3, [r3, #0]
 8000e5e:	18e4      	addne	r4, r4, r3
 8000e60:	f7ff ffee 	bl	8000e40 <HAL_GetTick>
 8000e64:	1b43      	subs	r3, r0, r5
 8000e66:	42a3      	cmp	r3, r4
 8000e68:	d3fa      	bcc.n	8000e60 <HAL_Delay+0x14>
 8000e6a:	bd38      	pop	{r3, r4, r5, pc}
 8000e6c:	2400001c 	.word	0x2400001c

08000e70 <HAL_GetREVID>:
 8000e70:	4b01      	ldr	r3, [pc, #4]	@ (8000e78 <HAL_GetREVID+0x8>)
 8000e72:	6818      	ldr	r0, [r3, #0]
 8000e74:	0c00      	lsrs	r0, r0, #16
 8000e76:	4770      	bx	lr
 8000e78:	5c001000 	.word	0x5c001000

08000e7c <HAL_NVIC_SetPriorityGrouping>:
 8000e7c:	4907      	ldr	r1, [pc, #28]	@ (8000e9c <HAL_NVIC_SetPriorityGrouping+0x20>)
 8000e7e:	0203      	lsls	r3, r0, #8
 8000e80:	68ca      	ldr	r2, [r1, #12]
 8000e82:	f403 63e0 	and.w	r3, r3, #1792	@ 0x700
 8000e86:	f422 62e0 	bic.w	r2, r2, #1792	@ 0x700
 8000e8a:	0412      	lsls	r2, r2, #16
 8000e8c:	0c12      	lsrs	r2, r2, #16
 8000e8e:	4313      	orrs	r3, r2
 8000e90:	f043 63bf 	orr.w	r3, r3, #100139008	@ 0x5f80000
 8000e94:	f443 3300 	orr.w	r3, r3, #131072	@ 0x20000
 8000e98:	60cb      	str	r3, [r1, #12]
 8000e9a:	4770      	bx	lr
 8000e9c:	e000ed00 	.word	0xe000ed00

08000ea0 <HAL_NVIC_SetPriority>:
 8000ea0:	4b16      	ldr	r3, [pc, #88]	@ (8000efc <HAL_NVIC_SetPriority+0x5c>)
 8000ea2:	b530      	push	{r4, r5, lr}
 8000ea4:	68dc      	ldr	r4, [r3, #12]
 8000ea6:	f3c4 2402 	ubfx	r4, r4, #8, #3
 8000eaa:	f1c4 0307 	rsb	r3, r4, #7
 8000eae:	1d25      	adds	r5, r4, #4
 8000eb0:	2b04      	cmp	r3, #4
 8000eb2:	bf28      	it	cs
 8000eb4:	2304      	movcs	r3, #4
 8000eb6:	2d06      	cmp	r5, #6
 8000eb8:	f04f 35ff 	mov.w	r5, #4294967295
 8000ebc:	bf8c      	ite	hi
 8000ebe:	3c03      	subhi	r4, #3
 8000ec0:	2400      	movls	r4, #0
 8000ec2:	fa05 f303 	lsl.w	r3, r5, r3
 8000ec6:	2800      	cmp	r0, #0
 8000ec8:	fa05 f504 	lsl.w	r5, r5, r4
 8000ecc:	ea21 0303 	bic.w	r3, r1, r3
 8000ed0:	ea22 0205 	bic.w	r2, r2, r5
 8000ed4:	fa03 f304 	lsl.w	r3, r3, r4
 8000ed8:	ea43 0302 	orr.w	r3, r3, r2
 8000edc:	ea4f 1303 	mov.w	r3, r3, lsl #4
 8000ee0:	b2db      	uxtb	r3, r3
 8000ee2:	db06      	blt.n	8000ef2 <HAL_NVIC_SetPriority+0x52>
 8000ee4:	f100 4060 	add.w	r0, r0, #3758096384	@ 0xe0000000
 8000ee8:	f500 4061 	add.w	r0, r0, #57600	@ 0xe100
 8000eec:	f880 3300 	strb.w	r3, [r0, #768]	@ 0x300
 8000ef0:	bd30      	pop	{r4, r5, pc}
 8000ef2:	f000 000f 	and.w	r0, r0, #15
 8000ef6:	4a02      	ldr	r2, [pc, #8]	@ (8000f00 <HAL_NVIC_SetPriority+0x60>)
 8000ef8:	5413      	strb	r3, [r2, r0]
 8000efa:	e7f9      	b.n	8000ef0 <HAL_NVIC_SetPriority+0x50>
 8000efc:	e000ed00 	.word	0xe000ed00
 8000f00:	e000ed14 	.word	0xe000ed14

08000f04 <HAL_NVIC_EnableIRQ>:
 8000f04:	2800      	cmp	r0, #0
 8000f06:	db07      	blt.n	8000f18 <HAL_NVIC_EnableIRQ+0x14>
 8000f08:	2301      	movs	r3, #1
 8000f0a:	0941      	lsrs	r1, r0, #5
 8000f0c:	f000 001f 	and.w	r0, r0, #31
 8000f10:	4a02      	ldr	r2, [pc, #8]	@ (8000f1c <HAL_NVIC_EnableIRQ+0x18>)
 8000f12:	4083      	lsls	r3, r0
 8000f14:	f842 3021 	str.w	r3, [r2, r1, lsl #2]
 8000f18:	4770      	bx	lr
 8000f1a:	bf00      	nop
 8000f1c:	e000e100 	.word	0xe000e100

08000f20 <HAL_SYSTICK_Config>:
 8000f20:	3801      	subs	r0, #1
 8000f22:	f1b0 7f80 	cmp.w	r0, #16777216	@ 0x1000000
 8000f26:	d20b      	bcs.n	8000f40 <HAL_SYSTICK_Config+0x20>
 8000f28:	f04f 23e0 	mov.w	r3, #3758153728	@ 0xe000e000
 8000f2c:	4a05      	ldr	r2, [pc, #20]	@ (8000f44 <HAL_SYSTICK_Config+0x24>)
 8000f2e:	21f0      	movs	r1, #240	@ 0xf0
 8000f30:	6158      	str	r0, [r3, #20]
 8000f32:	2000      	movs	r0, #0
 8000f34:	f882 1023 	strb.w	r1, [r2, #35]	@ 0x23
 8000f38:	2207      	movs	r2, #7
 8000f3a:	6198      	str	r0, [r3, #24]
 8000f3c:	611a      	str	r2, [r3, #16]
 8000f3e:	4770      	bx	lr
 8000f40:	2001      	movs	r0, #1
 8000f42:	4770      	bx	lr
 8000f44:	e000ed00 	.word	0xe000ed00

08000f48 <HAL_MPU_Disable>:
 8000f48:	f3bf 8f5f 	dmb	sy
 8000f4c:	4b04      	ldr	r3, [pc, #16]	@ (8000f60 <HAL_MPU_Disable+0x18>)
 8000f4e:	6a5a      	ldr	r2, [r3, #36]	@ 0x24
 8000f50:	f422 3280 	bic.w	r2, r2, #65536	@ 0x10000
 8000f54:	625a      	str	r2, [r3, #36]	@ 0x24
 8000f56:	2200      	movs	r2, #0
 8000f58:	f8c3 2094 	str.w	r2, [r3, #148]	@ 0x94
 8000f5c:	4770      	bx	lr
 8000f5e:	bf00      	nop
 8000f60:	e000ed00 	.word	0xe000ed00

08000f64 <HAL_MPU_Enable>:
 8000f64:	4b06      	ldr	r3, [pc, #24]	@ (8000f80 <HAL_MPU_Enable+0x1c>)
 8000f66:	f040 0001 	orr.w	r0, r0, #1
 8000f6a:	f8c3 0094 	str.w	r0, [r3, #148]	@ 0x94
 8000f6e:	6a5a      	ldr	r2, [r3, #36]	@ 0x24
 8000f70:	f442 3280 	orr.w	r2, r2, #65536	@ 0x10000
 8000f74:	625a      	str	r2, [r3, #36]	@ 0x24
 8000f76:	f3bf 8f4f 	dsb	sy
 8000f7a:	f3bf 8f6f 	isb	sy
 8000f7e:	4770      	bx	lr
 8000f80:	e000ed00 	.word	0xe000ed00

08000f84 <HAL_MPU_ConfigRegion>:
 8000f84:	7843      	ldrb	r3, [r0, #1]
 8000f86:	4a14      	ldr	r2, [pc, #80]	@ (8000fd8 <HAL_MPU_ConfigRegion+0x54>)
 8000f88:	f8c2 3098 	str.w	r3, [r2, #152]	@ 0x98
 8000f8c:	f8d2 30a0 	ldr.w	r3, [r2, #160]	@ 0xa0
 8000f90:	f023 0301 	bic.w	r3, r3, #1
 8000f94:	f8c2 30a0 	str.w	r3, [r2, #160]	@ 0xa0
 8000f98:	6843      	ldr	r3, [r0, #4]
 8000f9a:	f8c2 309c 	str.w	r3, [r2, #156]	@ 0x9c
 8000f9e:	7ac3      	ldrb	r3, [r0, #11]
 8000fa0:	7b01      	ldrb	r1, [r0, #12]
 8000fa2:	061b      	lsls	r3, r3, #24
 8000fa4:	ea43 7301 	orr.w	r3, r3, r1, lsl #28
 8000fa8:	7801      	ldrb	r1, [r0, #0]
 8000faa:	430b      	orrs	r3, r1
 8000fac:	7a81      	ldrb	r1, [r0, #10]
 8000fae:	ea43 43c1 	orr.w	r3, r3, r1, lsl #19
 8000fb2:	7b41      	ldrb	r1, [r0, #13]
 8000fb4:	ea43 4381 	orr.w	r3, r3, r1, lsl #18
 8000fb8:	7b81      	ldrb	r1, [r0, #14]
 8000fba:	ea43 4341 	orr.w	r3, r3, r1, lsl #17
 8000fbe:	7bc1      	ldrb	r1, [r0, #15]
 8000fc0:	ea43 4301 	orr.w	r3, r3, r1, lsl #16
 8000fc4:	7a41      	ldrb	r1, [r0, #9]
 8000fc6:	ea43 2301 	orr.w	r3, r3, r1, lsl #8
 8000fca:	7a01      	ldrb	r1, [r0, #8]
 8000fcc:	ea43 0341 	orr.w	r3, r3, r1, lsl #1
 8000fd0:	f8c2 30a0 	str.w	r3, [r2, #160]	@ 0xa0
 8000fd4:	4770      	bx	lr
 8000fd6:	bf00      	nop
 8000fd8:	e000ed00 	.word	0xe000ed00

08000fdc <HAL_GPIO_Init>:
 8000fdc:	e92d 4ff7 	stmdb	sp!, {r0, r1, r2, r4, r5, r6, r7, r8, r9, sl, fp, lr}
 8000fe0:	2300      	movs	r3, #0
 8000fe2:	f8df 91c4 	ldr.w	r9, [pc, #452]	@ 80011a8 <HAL_GPIO_Init+0x1cc>
 8000fe6:	f04f 44b0 	mov.w	r4, #1476395008	@ 0x58000000
 8000fea:	680a      	ldr	r2, [r1, #0]
 8000fec:	fa32 f503 	lsrs.w	r5, r2, r3
 8000ff0:	d102      	bne.n	8000ff8 <HAL_GPIO_Init+0x1c>
 8000ff2:	b003      	add	sp, #12
 8000ff4:	e8bd 8ff0 	ldmia.w	sp!, {r4, r5, r6, r7, r8, r9, sl, fp, pc}
 8000ff8:	2501      	movs	r5, #1
 8000ffa:	fa05 f803 	lsl.w	r8, r5, r3
 8000ffe:	ea18 0202 	ands.w	r2, r8, r2
 8001002:	f000 80bb 	beq.w	800117c <HAL_GPIO_Init+0x1a0>
 8001006:	684e      	ldr	r6, [r1, #4]
 8001008:	2703      	movs	r7, #3
 800100a:	ea4f 0e43 	mov.w	lr, r3, lsl #1
 800100e:	f006 0503 	and.w	r5, r6, #3
 8001012:	fa07 fc0e 	lsl.w	ip, r7, lr
 8001016:	1e6f      	subs	r7, r5, #1
 8001018:	ea6f 0c0c 	mvn.w	ip, ip
 800101c:	2f01      	cmp	r7, #1
 800101e:	d834      	bhi.n	800108a <HAL_GPIO_Init+0xae>
 8001020:	6887      	ldr	r7, [r0, #8]
 8001022:	ea07 0a0c 	and.w	sl, r7, ip
 8001026:	68cf      	ldr	r7, [r1, #12]
 8001028:	fa07 f70e 	lsl.w	r7, r7, lr
 800102c:	ea47 070a 	orr.w	r7, r7, sl
 8001030:	6087      	str	r7, [r0, #8]
 8001032:	6847      	ldr	r7, [r0, #4]
 8001034:	ea27 0808 	bic.w	r8, r7, r8
 8001038:	f3c6 1700 	ubfx	r7, r6, #4, #1
 800103c:	409f      	lsls	r7, r3
 800103e:	ea47 0708 	orr.w	r7, r7, r8
 8001042:	6047      	str	r7, [r0, #4]
 8001044:	68c7      	ldr	r7, [r0, #12]
 8001046:	2d02      	cmp	r5, #2
 8001048:	ea07 080c 	and.w	r8, r7, ip
 800104c:	688f      	ldr	r7, [r1, #8]
 800104e:	fa07 f70e 	lsl.w	r7, r7, lr
 8001052:	ea47 0708 	orr.w	r7, r7, r8
 8001056:	60c7      	str	r7, [r0, #12]
 8001058:	d119      	bne.n	800108e <HAL_GPIO_Init+0xb2>
 800105a:	ea4f 08d3 	mov.w	r8, r3, lsr #3
 800105e:	f003 0a07 	and.w	sl, r3, #7
 8001062:	f04f 0b0f 	mov.w	fp, #15
 8001066:	eb00 0888 	add.w	r8, r0, r8, lsl #2
 800106a:	ea4f 0a8a 	mov.w	sl, sl, lsl #2
 800106e:	f8d8 7020 	ldr.w	r7, [r8, #32]
 8001072:	fa0b fb0a 	lsl.w	fp, fp, sl
 8001076:	ea27 0b0b 	bic.w	fp, r7, fp
 800107a:	690f      	ldr	r7, [r1, #16]
 800107c:	fa07 f70a 	lsl.w	r7, r7, sl
 8001080:	ea47 070b 	orr.w	r7, r7, fp
 8001084:	f8c8 7020 	str.w	r7, [r8, #32]
 8001088:	e001      	b.n	800108e <HAL_GPIO_Init+0xb2>
 800108a:	2d03      	cmp	r5, #3
 800108c:	d1da      	bne.n	8001044 <HAL_GPIO_Init+0x68>
 800108e:	6807      	ldr	r7, [r0, #0]
 8001090:	fa05 f50e 	lsl.w	r5, r5, lr
 8001094:	f416 3f40 	tst.w	r6, #196608	@ 0x30000
 8001098:	ea07 070c 	and.w	r7, r7, ip
 800109c:	ea45 0507 	orr.w	r5, r5, r7
 80010a0:	6005      	str	r5, [r0, #0]
 80010a2:	d06b      	beq.n	800117c <HAL_GPIO_Init+0x1a0>
 80010a4:	f8d9 50f4 	ldr.w	r5, [r9, #244]	@ 0xf4
 80010a8:	f023 0703 	bic.w	r7, r3, #3
 80010ac:	f003 0c03 	and.w	ip, r3, #3
 80010b0:	f04f 0e0f 	mov.w	lr, #15
 80010b4:	f045 0502 	orr.w	r5, r5, #2
 80010b8:	f107 47b0 	add.w	r7, r7, #1476395008	@ 0x58000000
 80010bc:	ea4f 0c8c 	mov.w	ip, ip, lsl #2
 80010c0:	f8c9 50f4 	str.w	r5, [r9, #244]	@ 0xf4
 80010c4:	f507 6780 	add.w	r7, r7, #1024	@ 0x400
 80010c8:	f8d9 50f4 	ldr.w	r5, [r9, #244]	@ 0xf4
 80010cc:	fa0e fe0c 	lsl.w	lr, lr, ip
 80010d0:	f005 0502 	and.w	r5, r5, #2
 80010d4:	9501      	str	r5, [sp, #4]
 80010d6:	9d01      	ldr	r5, [sp, #4]
 80010d8:	68bd      	ldr	r5, [r7, #8]
 80010da:	ea25 0e0e 	bic.w	lr, r5, lr
 80010de:	4d31      	ldr	r5, [pc, #196]	@ (80011a4 <HAL_GPIO_Init+0x1c8>)
 80010e0:	42a8      	cmp	r0, r5
 80010e2:	d04d      	beq.n	8001180 <HAL_GPIO_Init+0x1a4>
 80010e4:	f505 6580 	add.w	r5, r5, #1024	@ 0x400
 80010e8:	42a8      	cmp	r0, r5
 80010ea:	d04b      	beq.n	8001184 <HAL_GPIO_Init+0x1a8>
 80010ec:	f505 6580 	add.w	r5, r5, #1024	@ 0x400
 80010f0:	42a8      	cmp	r0, r5
 80010f2:	d049      	beq.n	8001188 <HAL_GPIO_Init+0x1ac>
 80010f4:	f505 6580 	add.w	r5, r5, #1024	@ 0x400
 80010f8:	42a8      	cmp	r0, r5
 80010fa:	d047      	beq.n	800118c <HAL_GPIO_Init+0x1b0>
 80010fc:	f505 6580 	add.w	r5, r5, #1024	@ 0x400
 8001100:	42a8      	cmp	r0, r5
 8001102:	d045      	beq.n	8001190 <HAL_GPIO_Init+0x1b4>
 8001104:	f505 6580 	add.w	r5, r5, #1024	@ 0x400
 8001108:	42a8      	cmp	r0, r5
 800110a:	d043      	beq.n	8001194 <HAL_GPIO_Init+0x1b8>
 800110c:	f505 6580 	add.w	r5, r5, #1024	@ 0x400
 8001110:	42a8      	cmp	r0, r5
 8001112:	d041      	beq.n	8001198 <HAL_GPIO_Init+0x1bc>
 8001114:	f505 6580 	add.w	r5, r5, #1024	@ 0x400
 8001118:	42a8      	cmp	r0, r5
 800111a:	d03f      	beq.n	800119c <HAL_GPIO_Init+0x1c0>
 800111c:	f505 6580 	add.w	r5, r5, #1024	@ 0x400
 8001120:	42a8      	cmp	r0, r5
 8001122:	d03d      	beq.n	80011a0 <HAL_GPIO_Init+0x1c4>
 8001124:	f505 6580 	add.w	r5, r5, #1024	@ 0x400
 8001128:	42a8      	cmp	r0, r5
 800112a:	bf14      	ite	ne
 800112c:	250a      	movne	r5, #10
 800112e:	2509      	moveq	r5, #9
 8001130:	fa05 f50c 	lsl.w	r5, r5, ip
 8001134:	f416 1f80 	tst.w	r6, #1048576	@ 0x100000
 8001138:	ea45 050e 	orr.w	r5, r5, lr
 800113c:	60bd      	str	r5, [r7, #8]
 800113e:	ea6f 0702 	mvn.w	r7, r2
 8001142:	6825      	ldr	r5, [r4, #0]
 8001144:	bf0c      	ite	eq
 8001146:	403d      	andeq	r5, r7
 8001148:	4315      	orrne	r5, r2
 800114a:	f416 1f00 	tst.w	r6, #2097152	@ 0x200000
 800114e:	6025      	str	r5, [r4, #0]
 8001150:	6865      	ldr	r5, [r4, #4]
 8001152:	bf0c      	ite	eq
 8001154:	403d      	andeq	r5, r7
 8001156:	4315      	orrne	r5, r2
 8001158:	f416 3f00 	tst.w	r6, #131072	@ 0x20000
 800115c:	6065      	str	r5, [r4, #4]
 800115e:	f8d4 5084 	ldr.w	r5, [r4, #132]	@ 0x84
 8001162:	bf0c      	ite	eq
 8001164:	403d      	andeq	r5, r7
 8001166:	4315      	orrne	r5, r2
 8001168:	03f6      	lsls	r6, r6, #15
 800116a:	f8c4 5084 	str.w	r5, [r4, #132]	@ 0x84
 800116e:	f8d4 5080 	ldr.w	r5, [r4, #128]	@ 0x80
 8001172:	bf54      	ite	pl
 8001174:	403d      	andpl	r5, r7
 8001176:	4315      	orrmi	r5, r2
 8001178:	f8c4 5080 	str.w	r5, [r4, #128]	@ 0x80
 800117c:	3301      	adds	r3, #1
 800117e:	e734      	b.n	8000fea <HAL_GPIO_Init+0xe>
 8001180:	2500      	movs	r5, #0
 8001182:	e7d5      	b.n	8001130 <HAL_GPIO_Init+0x154>
 8001184:	2501      	movs	r5, #1
 8001186:	e7d3      	b.n	8001130 <HAL_GPIO_Init+0x154>
 8001188:	2502      	movs	r5, #2
 800118a:	e7d1      	b.n	8001130 <HAL_GPIO_Init+0x154>
 800118c:	2503      	movs	r5, #3
 800118e:	e7cf      	b.n	8001130 <HAL_GPIO_Init+0x154>
 8001190:	2504      	movs	r5, #4
 8001192:	e7cd      	b.n	8001130 <HAL_GPIO_Init+0x154>
 8001194:	2505      	movs	r5, #5
 8001196:	e7cb      	b.n	8001130 <HAL_GPIO_Init+0x154>
 8001198:	2506      	movs	r5, #6
 800119a:	e7c9      	b.n	8001130 <HAL_GPIO_Init+0x154>
 800119c:	2507      	movs	r5, #7
 800119e:	e7c7      	b.n	8001130 <HAL_GPIO_Init+0x154>
 80011a0:	2508      	movs	r5, #8
 80011a2:	e7c5      	b.n	8001130 <HAL_GPIO_Init+0x154>
 80011a4:	58020000 	.word	0x58020000
 80011a8:	58024400 	.word	0x58024400

080011ac <HAL_GPIO_ReadPin>:
 80011ac:	6903      	ldr	r3, [r0, #16]
 80011ae:	4219      	tst	r1, r3
 80011b0:	bf14      	ite	ne
 80011b2:	2001      	movne	r0, #1
 80011b4:	2000      	moveq	r0, #0
 80011b6:	4770      	bx	lr

080011b8 <HAL_GPIO_WritePin>:
 80011b8:	b10a      	cbz	r2, 80011be <HAL_GPIO_WritePin+0x6>
 80011ba:	6181      	str	r1, [r0, #24]
 80011bc:	4770      	bx	lr
 80011be:	0409      	lsls	r1, r1, #16
 80011c0:	e7fb      	b.n	80011ba <HAL_GPIO_WritePin+0x2>

080011c2 <HAL_GPIO_EXTI_IRQHandler>:
 80011c2:	f04f 42b0 	mov.w	r2, #1476395008	@ 0x58000000
 80011c6:	f8d2 1088 	ldr.w	r1, [r2, #136]	@ 0x88
 80011ca:	4201      	tst	r1, r0
 80011cc:	b508      	push	{r3, lr}
 80011ce:	d003      	beq.n	80011d8 <HAL_GPIO_EXTI_IRQHandler+0x16>
 80011d0:	f8c2 0088 	str.w	r0, [r2, #136]	@ 0x88
 80011d4:	f7ff fbb6 	bl	8000944 <HAL_GPIO_EXTI_Callback>
 80011d8:	bd08      	pop	{r3, pc}

080011da <HAL_PCD_Init>:
 80011da:	b5f7      	push	{r0, r1, r2, r4, r5, r6, r7, lr}
 80011dc:	4604      	mov	r4, r0
 80011de:	b1e0      	cbz	r0, 800121a <HAL_PCD_Init+0x40>
 80011e0:	f890 3495 	ldrb.w	r3, [r0, #1173]	@ 0x495
 80011e4:	f003 02ff 	and.w	r2, r3, #255	@ 0xff
 80011e8:	b91b      	cbnz	r3, 80011f2 <HAL_PCD_Init+0x18>
 80011ea:	f880 2494 	strb.w	r2, [r0, #1172]	@ 0x494
 80011ee:	f7ff fd43 	bl	8000c78 <HAL_PCD_MspInit>
 80011f2:	2303      	movs	r3, #3
 80011f4:	6820      	ldr	r0, [r4, #0]
 80011f6:	1d25      	adds	r5, r4, #4
 80011f8:	f884 3495 	strb.w	r3, [r4, #1173]	@ 0x495
 80011fc:	f002 f8c0 	bl	8003380 <USB_DisableGlobalInt>
 8001200:	7c23      	ldrb	r3, [r4, #16]
 8001202:	f88d 3000 	strb.w	r3, [sp]
 8001206:	6820      	ldr	r0, [r4, #0]
 8001208:	e895 000e 	ldmia.w	r5, {r1, r2, r3}
 800120c:	f002 f86a 	bl	80032e4 <USB_CoreInit>
 8001210:	4601      	mov	r1, r0
 8001212:	b130      	cbz	r0, 8001222 <HAL_PCD_Init+0x48>
 8001214:	2302      	movs	r3, #2
 8001216:	f884 3495 	strb.w	r3, [r4, #1173]	@ 0x495
 800121a:	2501      	movs	r5, #1
 800121c:	4628      	mov	r0, r5
 800121e:	b003      	add	sp, #12
 8001220:	bdf0      	pop	{r4, r5, r6, r7, pc}
 8001222:	6820      	ldr	r0, [r4, #0]
 8001224:	f002 f8b2 	bl	800338c <USB_SetCurrentMode>
 8001228:	2800      	cmp	r0, #0
 800122a:	d1f3      	bne.n	8001214 <HAL_PCD_Init+0x3a>
 800122c:	7926      	ldrb	r6, [r4, #4]
 800122e:	f104 0314 	add.w	r3, r4, #20
 8001232:	2701      	movs	r7, #1
 8001234:	4602      	mov	r2, r0
 8001236:	b2c1      	uxtb	r1, r0
 8001238:	3324      	adds	r3, #36	@ 0x24
 800123a:	428e      	cmp	r6, r1
 800123c:	d820      	bhi.n	8001280 <HAL_PCD_Init+0xa6>
 800123e:	2100      	movs	r1, #0
 8001240:	f504 7315 	add.w	r3, r4, #596	@ 0x254
 8001244:	460a      	mov	r2, r1
 8001246:	b2c8      	uxtb	r0, r1
 8001248:	3324      	adds	r3, #36	@ 0x24
 800124a:	4286      	cmp	r6, r0
 800124c:	d826      	bhi.n	800129c <HAL_PCD_Init+0xc2>
 800124e:	7c23      	ldrb	r3, [r4, #16]
 8001250:	f88d 3000 	strb.w	r3, [sp]
 8001254:	6820      	ldr	r0, [r4, #0]
 8001256:	e895 000e 	ldmia.w	r5, {r1, r2, r3}
 800125a:	f002 f911 	bl	8003480 <USB_DevInit>
 800125e:	4605      	mov	r5, r0
 8001260:	2800      	cmp	r0, #0
 8001262:	d1d7      	bne.n	8001214 <HAL_PCD_Init+0x3a>
 8001264:	2301      	movs	r3, #1
 8001266:	7460      	strb	r0, [r4, #17]
 8001268:	f884 3495 	strb.w	r3, [r4, #1173]	@ 0x495
 800126c:	7b23      	ldrb	r3, [r4, #12]
 800126e:	2b01      	cmp	r3, #1
 8001270:	d102      	bne.n	8001278 <HAL_PCD_Init+0x9e>
 8001272:	4620      	mov	r0, r4
 8001274:	f000 f81e 	bl	80012b4 <HAL_PCDEx_ActivateLPM>
 8001278:	6820      	ldr	r0, [r4, #0]
 800127a:	f002 f9b9 	bl	80035f0 <USB_DevDisconnect>
 800127e:	e7cd      	b.n	800121c <HAL_PCD_Init+0x42>
 8001280:	f823 0c0a 	strh.w	r0, [r3, #-10]
 8001284:	3001      	adds	r0, #1
 8001286:	f803 7c23 	strb.w	r7, [r3, #-35]
 800128a:	f803 1c24 	strb.w	r1, [r3, #-36]
 800128e:	f803 2c20 	strb.w	r2, [r3, #-32]
 8001292:	f843 2c14 	str.w	r2, [r3, #-20]
 8001296:	e943 2207 	strd	r2, r2, [r3, #-28]
 800129a:	e7cc      	b.n	8001236 <HAL_PCD_Init+0x5c>
 800129c:	3101      	adds	r1, #1
 800129e:	f803 2c23 	strb.w	r2, [r3, #-35]
 80012a2:	f803 0c24 	strb.w	r0, [r3, #-36]
 80012a6:	f803 2c20 	strb.w	r2, [r3, #-32]
 80012aa:	f843 2c14 	str.w	r2, [r3, #-20]
 80012ae:	e943 2207 	strd	r2, r2, [r3, #-28]
 80012b2:	e7c8      	b.n	8001246 <HAL_PCD_Init+0x6c>

080012b4 <HAL_PCDEx_ActivateLPM>:
 80012b4:	2101      	movs	r1, #1
 80012b6:	6802      	ldr	r2, [r0, #0]
 80012b8:	4603      	mov	r3, r0
 80012ba:	f8c0 14d8 	str.w	r1, [r0, #1240]	@ 0x4d8
 80012be:	2000      	movs	r0, #0
 80012c0:	f883 04cc 	strb.w	r0, [r3, #1228]	@ 0x4cc
 80012c4:	6993      	ldr	r3, [r2, #24]
 80012c6:	f043 6300 	orr.w	r3, r3, #134217728	@ 0x8000000
 80012ca:	6193      	str	r3, [r2, #24]
 80012cc:	6d53      	ldr	r3, [r2, #84]	@ 0x54
 80012ce:	f043 5380 	orr.w	r3, r3, #268435456	@ 0x10000000
 80012d2:	f043 0303 	orr.w	r3, r3, #3
 80012d6:	6553      	str	r3, [r2, #84]	@ 0x54
 80012d8:	4770      	bx	lr
	...

080012dc <HAL_PWREx_ConfigSupply>:
 80012dc:	b538      	push	{r3, r4, r5, lr}
 80012de:	4c10      	ldr	r4, [pc, #64]	@ (8001320 <HAL_PWREx_ConfigSupply+0x44>)
 80012e0:	68e3      	ldr	r3, [r4, #12]
 80012e2:	f013 0f04 	tst.w	r3, #4
 80012e6:	68e3      	ldr	r3, [r4, #12]
 80012e8:	d105      	bne.n	80012f6 <HAL_PWREx_ConfigSupply+0x1a>
 80012ea:	f003 0307 	and.w	r3, r3, #7
 80012ee:	1a18      	subs	r0, r3, r0
 80012f0:	bf18      	it	ne
 80012f2:	2001      	movne	r0, #1
 80012f4:	bd38      	pop	{r3, r4, r5, pc}
 80012f6:	f023 0307 	bic.w	r3, r3, #7
 80012fa:	4318      	orrs	r0, r3
 80012fc:	60e0      	str	r0, [r4, #12]
 80012fe:	f7ff fd9f 	bl	8000e40 <HAL_GetTick>
 8001302:	4605      	mov	r5, r0
 8001304:	6863      	ldr	r3, [r4, #4]
 8001306:	049b      	lsls	r3, r3, #18
 8001308:	d501      	bpl.n	800130e <HAL_PWREx_ConfigSupply+0x32>
 800130a:	2000      	movs	r0, #0
 800130c:	e7f2      	b.n	80012f4 <HAL_PWREx_ConfigSupply+0x18>
 800130e:	f7ff fd97 	bl	8000e40 <HAL_GetTick>
 8001312:	1b40      	subs	r0, r0, r5
 8001314:	f5b0 7f7a 	cmp.w	r0, #1000	@ 0x3e8
 8001318:	d9f4      	bls.n	8001304 <HAL_PWREx_ConfigSupply+0x28>
 800131a:	2001      	movs	r0, #1
 800131c:	e7ea      	b.n	80012f4 <HAL_PWREx_ConfigSupply+0x18>
 800131e:	bf00      	nop
 8001320:	58024800 	.word	0x58024800

08001324 <HAL_PWREx_EnableUSBVoltageDetector>:
 8001324:	4a02      	ldr	r2, [pc, #8]	@ (8001330 <HAL_PWREx_EnableUSBVoltageDetector+0xc>)
 8001326:	68d3      	ldr	r3, [r2, #12]
 8001328:	f043 7380 	orr.w	r3, r3, #16777216	@ 0x1000000
 800132c:	60d3      	str	r3, [r2, #12]
 800132e:	4770      	bx	lr
 8001330:	58024800 	.word	0x58024800

08001334 <HAL_RCC_OscConfig>:
 8001334:	b5f8      	push	{r3, r4, r5, r6, r7, lr}
 8001336:	4604      	mov	r4, r0
 8001338:	2800      	cmp	r0, #0
 800133a:	d074      	beq.n	8001426 <HAL_RCC_OscConfig+0xf2>
 800133c:	6803      	ldr	r3, [r0, #0]
 800133e:	07d8      	lsls	r0, r3, #31
 8001340:	d45e      	bmi.n	8001400 <HAL_RCC_OscConfig+0xcc>
 8001342:	6823      	ldr	r3, [r4, #0]
 8001344:	0799      	lsls	r1, r3, #30
 8001346:	f100 80ad 	bmi.w	80014a4 <HAL_RCC_OscConfig+0x170>
 800134a:	6823      	ldr	r3, [r4, #0]
 800134c:	06da      	lsls	r2, r3, #27
 800134e:	d527      	bpl.n	80013a0 <HAL_RCC_OscConfig+0x6c>
 8001350:	4a9c      	ldr	r2, [pc, #624]	@ (80015c4 <HAL_RCC_OscConfig+0x290>)
 8001352:	6913      	ldr	r3, [r2, #16]
 8001354:	6a91      	ldr	r1, [r2, #40]	@ 0x28
 8001356:	f003 0338 	and.w	r3, r3, #56	@ 0x38
 800135a:	2b08      	cmp	r3, #8
 800135c:	d007      	beq.n	800136e <HAL_RCC_OscConfig+0x3a>
 800135e:	2b18      	cmp	r3, #24
 8001360:	f040 8103 	bne.w	800156a <HAL_RCC_OscConfig+0x236>
 8001364:	f001 0303 	and.w	r3, r1, #3
 8001368:	2b01      	cmp	r3, #1
 800136a:	f040 80fe 	bne.w	800156a <HAL_RCC_OscConfig+0x236>
 800136e:	6813      	ldr	r3, [r2, #0]
 8001370:	05db      	lsls	r3, r3, #23
 8001372:	d502      	bpl.n	800137a <HAL_RCC_OscConfig+0x46>
 8001374:	69e3      	ldr	r3, [r4, #28]
 8001376:	2b80      	cmp	r3, #128	@ 0x80
 8001378:	d155      	bne.n	8001426 <HAL_RCC_OscConfig+0xf2>
 800137a:	f7ff fd79 	bl	8000e70 <HAL_GetREVID>
 800137e:	f241 0303 	movw	r3, #4099	@ 0x1003
 8001382:	6a21      	ldr	r1, [r4, #32]
 8001384:	4298      	cmp	r0, r3
 8001386:	4b8f      	ldr	r3, [pc, #572]	@ (80015c4 <HAL_RCC_OscConfig+0x290>)
 8001388:	f200 80e8 	bhi.w	800155c <HAL_RCC_OscConfig+0x228>
 800138c:	685a      	ldr	r2, [r3, #4]
 800138e:	2920      	cmp	r1, #32
 8001390:	f022 42f8 	bic.w	r2, r2, #2080374784	@ 0x7c000000
 8001394:	bf0c      	ite	eq
 8001396:	f042 4280 	orreq.w	r2, r2, #1073741824	@ 0x40000000
 800139a:	ea42 6281 	orrne.w	r2, r2, r1, lsl #26
 800139e:	605a      	str	r2, [r3, #4]
 80013a0:	6823      	ldr	r3, [r4, #0]
 80013a2:	0719      	lsls	r1, r3, #28
 80013a4:	f100 8123 	bmi.w	80015ee <HAL_RCC_OscConfig+0x2ba>
 80013a8:	6823      	ldr	r3, [r4, #0]
 80013aa:	069a      	lsls	r2, r3, #26
 80013ac:	f100 8144 	bmi.w	8001638 <HAL_RCC_OscConfig+0x304>
 80013b0:	6823      	ldr	r3, [r4, #0]
 80013b2:	075d      	lsls	r5, r3, #29
 80013b4:	d51e      	bpl.n	80013f4 <HAL_RCC_OscConfig+0xc0>
 80013b6:	4d84      	ldr	r5, [pc, #528]	@ (80015c8 <HAL_RCC_OscConfig+0x294>)
 80013b8:	682b      	ldr	r3, [r5, #0]
 80013ba:	f443 7380 	orr.w	r3, r3, #256	@ 0x100
 80013be:	602b      	str	r3, [r5, #0]
 80013c0:	f7ff fd3e 	bl	8000e40 <HAL_GetTick>
 80013c4:	4606      	mov	r6, r0
 80013c6:	682b      	ldr	r3, [r5, #0]
 80013c8:	05da      	lsls	r2, r3, #23
 80013ca:	f140 815a 	bpl.w	8001682 <HAL_RCC_OscConfig+0x34e>
 80013ce:	68a3      	ldr	r3, [r4, #8]
 80013d0:	4d7c      	ldr	r5, [pc, #496]	@ (80015c4 <HAL_RCC_OscConfig+0x290>)
 80013d2:	2b01      	cmp	r3, #1
 80013d4:	f040 815c 	bne.w	8001690 <HAL_RCC_OscConfig+0x35c>
 80013d8:	6f2b      	ldr	r3, [r5, #112]	@ 0x70
 80013da:	f043 0301 	orr.w	r3, r3, #1
 80013de:	672b      	str	r3, [r5, #112]	@ 0x70
 80013e0:	f241 3788 	movw	r7, #5000	@ 0x1388
 80013e4:	f7ff fd2c 	bl	8000e40 <HAL_GetTick>
 80013e8:	4e76      	ldr	r6, [pc, #472]	@ (80015c4 <HAL_RCC_OscConfig+0x290>)
 80013ea:	4605      	mov	r5, r0
 80013ec:	6f33      	ldr	r3, [r6, #112]	@ 0x70
 80013ee:	079b      	lsls	r3, r3, #30
 80013f0:	f140 8174 	bpl.w	80016dc <HAL_RCC_OscConfig+0x3a8>
 80013f4:	6a61      	ldr	r1, [r4, #36]	@ 0x24
 80013f6:	2900      	cmp	r1, #0
 80013f8:	f040 8177 	bne.w	80016ea <HAL_RCC_OscConfig+0x3b6>
 80013fc:	2000      	movs	r0, #0
 80013fe:	e02b      	b.n	8001458 <HAL_RCC_OscConfig+0x124>
 8001400:	4a70      	ldr	r2, [pc, #448]	@ (80015c4 <HAL_RCC_OscConfig+0x290>)
 8001402:	6913      	ldr	r3, [r2, #16]
 8001404:	6a91      	ldr	r1, [r2, #40]	@ 0x28
 8001406:	f003 0338 	and.w	r3, r3, #56	@ 0x38
 800140a:	2b10      	cmp	r3, #16
 800140c:	d005      	beq.n	800141a <HAL_RCC_OscConfig+0xe6>
 800140e:	2b18      	cmp	r3, #24
 8001410:	d10b      	bne.n	800142a <HAL_RCC_OscConfig+0xf6>
 8001412:	f001 0303 	and.w	r3, r1, #3
 8001416:	2b02      	cmp	r3, #2
 8001418:	d107      	bne.n	800142a <HAL_RCC_OscConfig+0xf6>
 800141a:	6813      	ldr	r3, [r2, #0]
 800141c:	039a      	lsls	r2, r3, #14
 800141e:	d590      	bpl.n	8001342 <HAL_RCC_OscConfig+0xe>
 8001420:	6863      	ldr	r3, [r4, #4]
 8001422:	2b00      	cmp	r3, #0
 8001424:	d18d      	bne.n	8001342 <HAL_RCC_OscConfig+0xe>
 8001426:	2001      	movs	r0, #1
 8001428:	e016      	b.n	8001458 <HAL_RCC_OscConfig+0x124>
 800142a:	6863      	ldr	r3, [r4, #4]
 800142c:	4d65      	ldr	r5, [pc, #404]	@ (80015c4 <HAL_RCC_OscConfig+0x290>)
 800142e:	f5b3 3f80 	cmp.w	r3, #65536	@ 0x10000
 8001432:	d112      	bne.n	800145a <HAL_RCC_OscConfig+0x126>
 8001434:	682b      	ldr	r3, [r5, #0]
 8001436:	f443 3380 	orr.w	r3, r3, #65536	@ 0x10000
 800143a:	602b      	str	r3, [r5, #0]
 800143c:	f7ff fd00 	bl	8000e40 <HAL_GetTick>
 8001440:	4e60      	ldr	r6, [pc, #384]	@ (80015c4 <HAL_RCC_OscConfig+0x290>)
 8001442:	4605      	mov	r5, r0
 8001444:	6833      	ldr	r3, [r6, #0]
 8001446:	039b      	lsls	r3, r3, #14
 8001448:	f53f af7b 	bmi.w	8001342 <HAL_RCC_OscConfig+0xe>
 800144c:	f7ff fcf8 	bl	8000e40 <HAL_GetTick>
 8001450:	1b40      	subs	r0, r0, r5
 8001452:	2864      	cmp	r0, #100	@ 0x64
 8001454:	d9f6      	bls.n	8001444 <HAL_RCC_OscConfig+0x110>
 8001456:	2003      	movs	r0, #3
 8001458:	bdf8      	pop	{r3, r4, r5, r6, r7, pc}
 800145a:	b9a3      	cbnz	r3, 8001486 <HAL_RCC_OscConfig+0x152>
 800145c:	682b      	ldr	r3, [r5, #0]
 800145e:	f423 3380 	bic.w	r3, r3, #65536	@ 0x10000
 8001462:	602b      	str	r3, [r5, #0]
 8001464:	682b      	ldr	r3, [r5, #0]
 8001466:	f423 2380 	bic.w	r3, r3, #262144	@ 0x40000
 800146a:	602b      	str	r3, [r5, #0]
 800146c:	f7ff fce8 	bl	8000e40 <HAL_GetTick>
 8001470:	4606      	mov	r6, r0
 8001472:	682b      	ldr	r3, [r5, #0]
 8001474:	039f      	lsls	r7, r3, #14
 8001476:	f57f af64 	bpl.w	8001342 <HAL_RCC_OscConfig+0xe>
 800147a:	f7ff fce1 	bl	8000e40 <HAL_GetTick>
 800147e:	1b80      	subs	r0, r0, r6
 8001480:	2864      	cmp	r0, #100	@ 0x64
 8001482:	d9f6      	bls.n	8001472 <HAL_RCC_OscConfig+0x13e>
 8001484:	e7e7      	b.n	8001456 <HAL_RCC_OscConfig+0x122>
 8001486:	f5b3 2fa0 	cmp.w	r3, #327680	@ 0x50000
 800148a:	682b      	ldr	r3, [r5, #0]
 800148c:	d103      	bne.n	8001496 <HAL_RCC_OscConfig+0x162>
 800148e:	f443 2380 	orr.w	r3, r3, #262144	@ 0x40000
 8001492:	602b      	str	r3, [r5, #0]
 8001494:	e7ce      	b.n	8001434 <HAL_RCC_OscConfig+0x100>
 8001496:	f423 3380 	bic.w	r3, r3, #65536	@ 0x10000
 800149a:	602b      	str	r3, [r5, #0]
 800149c:	682b      	ldr	r3, [r5, #0]
 800149e:	f423 2380 	bic.w	r3, r3, #262144	@ 0x40000
 80014a2:	e7ca      	b.n	800143a <HAL_RCC_OscConfig+0x106>
 80014a4:	4947      	ldr	r1, [pc, #284]	@ (80015c4 <HAL_RCC_OscConfig+0x290>)
 80014a6:	68e2      	ldr	r2, [r4, #12]
 80014a8:	690b      	ldr	r3, [r1, #16]
 80014aa:	6a88      	ldr	r0, [r1, #40]	@ 0x28
 80014ac:	f013 0338 	ands.w	r3, r3, #56	@ 0x38
 80014b0:	d003      	beq.n	80014ba <HAL_RCC_OscConfig+0x186>
 80014b2:	2b18      	cmp	r3, #24
 80014b4:	d12a      	bne.n	800150c <HAL_RCC_OscConfig+0x1d8>
 80014b6:	0780      	lsls	r0, r0, #30
 80014b8:	d128      	bne.n	800150c <HAL_RCC_OscConfig+0x1d8>
 80014ba:	680b      	ldr	r3, [r1, #0]
 80014bc:	075b      	lsls	r3, r3, #29
 80014be:	d501      	bpl.n	80014c4 <HAL_RCC_OscConfig+0x190>
 80014c0:	2a00      	cmp	r2, #0
 80014c2:	d0b0      	beq.n	8001426 <HAL_RCC_OscConfig+0xf2>
 80014c4:	4d3f      	ldr	r5, [pc, #252]	@ (80015c4 <HAL_RCC_OscConfig+0x290>)
 80014c6:	682b      	ldr	r3, [r5, #0]
 80014c8:	f023 0319 	bic.w	r3, r3, #25
 80014cc:	4313      	orrs	r3, r2
 80014ce:	602b      	str	r3, [r5, #0]
 80014d0:	f7ff fcb6 	bl	8000e40 <HAL_GetTick>
 80014d4:	4606      	mov	r6, r0
 80014d6:	682b      	ldr	r3, [r5, #0]
 80014d8:	075f      	lsls	r7, r3, #29
 80014da:	d511      	bpl.n	8001500 <HAL_RCC_OscConfig+0x1cc>
 80014dc:	f7ff fcc8 	bl	8000e70 <HAL_GetREVID>
 80014e0:	f241 0303 	movw	r3, #4099	@ 0x1003
 80014e4:	6922      	ldr	r2, [r4, #16]
 80014e6:	4298      	cmp	r0, r3
 80014e8:	686b      	ldr	r3, [r5, #4]
 80014ea:	d822      	bhi.n	8001532 <HAL_RCC_OscConfig+0x1fe>
 80014ec:	f423 337c 	bic.w	r3, r3, #258048	@ 0x3f000
 80014f0:	2a40      	cmp	r2, #64	@ 0x40
 80014f2:	bf0c      	ite	eq
 80014f4:	f443 3300 	orreq.w	r3, r3, #131072	@ 0x20000
 80014f8:	ea43 3302 	orrne.w	r3, r3, r2, lsl #12
 80014fc:	606b      	str	r3, [r5, #4]
 80014fe:	e724      	b.n	800134a <HAL_RCC_OscConfig+0x16>
 8001500:	f7ff fc9e 	bl	8000e40 <HAL_GetTick>
 8001504:	1b80      	subs	r0, r0, r6
 8001506:	2802      	cmp	r0, #2
 8001508:	d9e5      	bls.n	80014d6 <HAL_RCC_OscConfig+0x1a2>
 800150a:	e7a4      	b.n	8001456 <HAL_RCC_OscConfig+0x122>
 800150c:	4d2d      	ldr	r5, [pc, #180]	@ (80015c4 <HAL_RCC_OscConfig+0x290>)
 800150e:	682b      	ldr	r3, [r5, #0]
 8001510:	b1a2      	cbz	r2, 800153c <HAL_RCC_OscConfig+0x208>
 8001512:	f023 0319 	bic.w	r3, r3, #25
 8001516:	4313      	orrs	r3, r2
 8001518:	602b      	str	r3, [r5, #0]
 800151a:	f7ff fc91 	bl	8000e40 <HAL_GetTick>
 800151e:	4606      	mov	r6, r0
 8001520:	682b      	ldr	r3, [r5, #0]
 8001522:	0758      	lsls	r0, r3, #29
 8001524:	d4da      	bmi.n	80014dc <HAL_RCC_OscConfig+0x1a8>
 8001526:	f7ff fc8b 	bl	8000e40 <HAL_GetTick>
 800152a:	1b80      	subs	r0, r0, r6
 800152c:	2802      	cmp	r0, #2
 800152e:	d9f7      	bls.n	8001520 <HAL_RCC_OscConfig+0x1ec>
 8001530:	e791      	b.n	8001456 <HAL_RCC_OscConfig+0x122>
 8001532:	f023 43fe 	bic.w	r3, r3, #2130706432	@ 0x7f000000
 8001536:	ea43 6302 	orr.w	r3, r3, r2, lsl #24
 800153a:	e7df      	b.n	80014fc <HAL_RCC_OscConfig+0x1c8>
 800153c:	f023 0301 	bic.w	r3, r3, #1
 8001540:	602b      	str	r3, [r5, #0]
 8001542:	f7ff fc7d 	bl	8000e40 <HAL_GetTick>
 8001546:	4606      	mov	r6, r0
 8001548:	682b      	ldr	r3, [r5, #0]
 800154a:	0759      	lsls	r1, r3, #29
 800154c:	f57f aefd 	bpl.w	800134a <HAL_RCC_OscConfig+0x16>
 8001550:	f7ff fc76 	bl	8000e40 <HAL_GetTick>
 8001554:	1b80      	subs	r0, r0, r6
 8001556:	2802      	cmp	r0, #2
 8001558:	d9f6      	bls.n	8001548 <HAL_RCC_OscConfig+0x214>
 800155a:	e77c      	b.n	8001456 <HAL_RCC_OscConfig+0x122>
 800155c:	68da      	ldr	r2, [r3, #12]
 800155e:	f022 527c 	bic.w	r2, r2, #1056964608	@ 0x3f000000
 8001562:	ea42 6201 	orr.w	r2, r2, r1, lsl #24
 8001566:	60da      	str	r2, [r3, #12]
 8001568:	e71a      	b.n	80013a0 <HAL_RCC_OscConfig+0x6c>
 800156a:	69e3      	ldr	r3, [r4, #28]
 800156c:	4d15      	ldr	r5, [pc, #84]	@ (80015c4 <HAL_RCC_OscConfig+0x290>)
 800156e:	b36b      	cbz	r3, 80015cc <HAL_RCC_OscConfig+0x298>
 8001570:	682b      	ldr	r3, [r5, #0]
 8001572:	f043 0380 	orr.w	r3, r3, #128	@ 0x80
 8001576:	602b      	str	r3, [r5, #0]
 8001578:	f7ff fc62 	bl	8000e40 <HAL_GetTick>
 800157c:	4606      	mov	r6, r0
 800157e:	682b      	ldr	r3, [r5, #0]
 8001580:	05df      	lsls	r7, r3, #23
 8001582:	d511      	bpl.n	80015a8 <HAL_RCC_OscConfig+0x274>
 8001584:	f7ff fc74 	bl	8000e70 <HAL_GetREVID>
 8001588:	f241 0303 	movw	r3, #4099	@ 0x1003
 800158c:	6a22      	ldr	r2, [r4, #32]
 800158e:	4298      	cmp	r0, r3
 8001590:	d810      	bhi.n	80015b4 <HAL_RCC_OscConfig+0x280>
 8001592:	686b      	ldr	r3, [r5, #4]
 8001594:	2a20      	cmp	r2, #32
 8001596:	f023 43f8 	bic.w	r3, r3, #2080374784	@ 0x7c000000
 800159a:	bf0c      	ite	eq
 800159c:	f043 4380 	orreq.w	r3, r3, #1073741824	@ 0x40000000
 80015a0:	ea43 6382 	orrne.w	r3, r3, r2, lsl #26
 80015a4:	606b      	str	r3, [r5, #4]
 80015a6:	e6fb      	b.n	80013a0 <HAL_RCC_OscConfig+0x6c>
 80015a8:	f7ff fc4a 	bl	8000e40 <HAL_GetTick>
 80015ac:	1b80      	subs	r0, r0, r6
 80015ae:	2802      	cmp	r0, #2
 80015b0:	d9e5      	bls.n	800157e <HAL_RCC_OscConfig+0x24a>
 80015b2:	e750      	b.n	8001456 <HAL_RCC_OscConfig+0x122>
 80015b4:	68eb      	ldr	r3, [r5, #12]
 80015b6:	f023 537c 	bic.w	r3, r3, #1056964608	@ 0x3f000000
 80015ba:	ea43 6302 	orr.w	r3, r3, r2, lsl #24
 80015be:	60eb      	str	r3, [r5, #12]
 80015c0:	e6ee      	b.n	80013a0 <HAL_RCC_OscConfig+0x6c>
 80015c2:	bf00      	nop
 80015c4:	58024400 	.word	0x58024400
 80015c8:	58024800 	.word	0x58024800
 80015cc:	682b      	ldr	r3, [r5, #0]
 80015ce:	f023 0380 	bic.w	r3, r3, #128	@ 0x80
 80015d2:	602b      	str	r3, [r5, #0]
 80015d4:	f7ff fc34 	bl	8000e40 <HAL_GetTick>
 80015d8:	4606      	mov	r6, r0
 80015da:	682b      	ldr	r3, [r5, #0]
 80015dc:	05d8      	lsls	r0, r3, #23
 80015de:	f57f aedf 	bpl.w	80013a0 <HAL_RCC_OscConfig+0x6c>
 80015e2:	f7ff fc2d 	bl	8000e40 <HAL_GetTick>
 80015e6:	1b80      	subs	r0, r0, r6
 80015e8:	2802      	cmp	r0, #2
 80015ea:	d9f6      	bls.n	80015da <HAL_RCC_OscConfig+0x2a6>
 80015ec:	e733      	b.n	8001456 <HAL_RCC_OscConfig+0x122>
 80015ee:	6963      	ldr	r3, [r4, #20]
 80015f0:	4da5      	ldr	r5, [pc, #660]	@ (8001888 <HAL_RCC_OscConfig+0x554>)
 80015f2:	b183      	cbz	r3, 8001616 <HAL_RCC_OscConfig+0x2e2>
 80015f4:	6f6b      	ldr	r3, [r5, #116]	@ 0x74
 80015f6:	f043 0301 	orr.w	r3, r3, #1
 80015fa:	676b      	str	r3, [r5, #116]	@ 0x74
 80015fc:	f7ff fc20 	bl	8000e40 <HAL_GetTick>
 8001600:	4606      	mov	r6, r0
 8001602:	6f6b      	ldr	r3, [r5, #116]	@ 0x74
 8001604:	079b      	lsls	r3, r3, #30
 8001606:	f53f aecf 	bmi.w	80013a8 <HAL_RCC_OscConfig+0x74>
 800160a:	f7ff fc19 	bl	8000e40 <HAL_GetTick>
 800160e:	1b80      	subs	r0, r0, r6
 8001610:	2802      	cmp	r0, #2
 8001612:	d9f6      	bls.n	8001602 <HAL_RCC_OscConfig+0x2ce>
 8001614:	e71f      	b.n	8001456 <HAL_RCC_OscConfig+0x122>
 8001616:	6f6b      	ldr	r3, [r5, #116]	@ 0x74
 8001618:	f023 0301 	bic.w	r3, r3, #1
 800161c:	676b      	str	r3, [r5, #116]	@ 0x74
 800161e:	f7ff fc0f 	bl	8000e40 <HAL_GetTick>
 8001622:	4606      	mov	r6, r0
 8001624:	6f6b      	ldr	r3, [r5, #116]	@ 0x74
 8001626:	079f      	lsls	r7, r3, #30
 8001628:	f57f aebe 	bpl.w	80013a8 <HAL_RCC_OscConfig+0x74>
 800162c:	f7ff fc08 	bl	8000e40 <HAL_GetTick>
 8001630:	1b80      	subs	r0, r0, r6
 8001632:	2802      	cmp	r0, #2
 8001634:	d9f6      	bls.n	8001624 <HAL_RCC_OscConfig+0x2f0>
 8001636:	e70e      	b.n	8001456 <HAL_RCC_OscConfig+0x122>
 8001638:	69a3      	ldr	r3, [r4, #24]
 800163a:	4d93      	ldr	r5, [pc, #588]	@ (8001888 <HAL_RCC_OscConfig+0x554>)
 800163c:	b183      	cbz	r3, 8001660 <HAL_RCC_OscConfig+0x32c>
 800163e:	682b      	ldr	r3, [r5, #0]
 8001640:	f443 5380 	orr.w	r3, r3, #4096	@ 0x1000
 8001644:	602b      	str	r3, [r5, #0]
 8001646:	f7ff fbfb 	bl	8000e40 <HAL_GetTick>
 800164a:	4606      	mov	r6, r0
 800164c:	682b      	ldr	r3, [r5, #0]
 800164e:	0498      	lsls	r0, r3, #18
 8001650:	f53f aeae 	bmi.w	80013b0 <HAL_RCC_OscConfig+0x7c>
 8001654:	f7ff fbf4 	bl	8000e40 <HAL_GetTick>
 8001658:	1b80      	subs	r0, r0, r6
 800165a:	2802      	cmp	r0, #2
 800165c:	d9f6      	bls.n	800164c <HAL_RCC_OscConfig+0x318>
 800165e:	e6fa      	b.n	8001456 <HAL_RCC_OscConfig+0x122>
 8001660:	682b      	ldr	r3, [r5, #0]
 8001662:	f423 5380 	bic.w	r3, r3, #4096	@ 0x1000
 8001666:	602b      	str	r3, [r5, #0]
 8001668:	f7ff fbea 	bl	8000e40 <HAL_GetTick>
 800166c:	4606      	mov	r6, r0
 800166e:	682b      	ldr	r3, [r5, #0]
 8001670:	0499      	lsls	r1, r3, #18
 8001672:	f57f ae9d 	bpl.w	80013b0 <HAL_RCC_OscConfig+0x7c>
 8001676:	f7ff fbe3 	bl	8000e40 <HAL_GetTick>
 800167a:	1b80      	subs	r0, r0, r6
 800167c:	2802      	cmp	r0, #2
 800167e:	d9f6      	bls.n	800166e <HAL_RCC_OscConfig+0x33a>
 8001680:	e6e9      	b.n	8001456 <HAL_RCC_OscConfig+0x122>
 8001682:	f7ff fbdd 	bl	8000e40 <HAL_GetTick>
 8001686:	1b80      	subs	r0, r0, r6
 8001688:	2864      	cmp	r0, #100	@ 0x64
 800168a:	f67f ae9c 	bls.w	80013c6 <HAL_RCC_OscConfig+0x92>
 800168e:	e6e2      	b.n	8001456 <HAL_RCC_OscConfig+0x122>
 8001690:	b9b3      	cbnz	r3, 80016c0 <HAL_RCC_OscConfig+0x38c>
 8001692:	6f2b      	ldr	r3, [r5, #112]	@ 0x70
 8001694:	f241 3788 	movw	r7, #5000	@ 0x1388
 8001698:	f023 0301 	bic.w	r3, r3, #1
 800169c:	672b      	str	r3, [r5, #112]	@ 0x70
 800169e:	6f2b      	ldr	r3, [r5, #112]	@ 0x70
 80016a0:	f023 0304 	bic.w	r3, r3, #4
 80016a4:	672b      	str	r3, [r5, #112]	@ 0x70
 80016a6:	f7ff fbcb 	bl	8000e40 <HAL_GetTick>
 80016aa:	4606      	mov	r6, r0
 80016ac:	6f2b      	ldr	r3, [r5, #112]	@ 0x70
 80016ae:	0798      	lsls	r0, r3, #30
 80016b0:	f57f aea0 	bpl.w	80013f4 <HAL_RCC_OscConfig+0xc0>
 80016b4:	f7ff fbc4 	bl	8000e40 <HAL_GetTick>
 80016b8:	1b80      	subs	r0, r0, r6
 80016ba:	42b8      	cmp	r0, r7
 80016bc:	d9f6      	bls.n	80016ac <HAL_RCC_OscConfig+0x378>
 80016be:	e6ca      	b.n	8001456 <HAL_RCC_OscConfig+0x122>
 80016c0:	2b05      	cmp	r3, #5
 80016c2:	6f2b      	ldr	r3, [r5, #112]	@ 0x70
 80016c4:	d103      	bne.n	80016ce <HAL_RCC_OscConfig+0x39a>
 80016c6:	f043 0304 	orr.w	r3, r3, #4
 80016ca:	672b      	str	r3, [r5, #112]	@ 0x70
 80016cc:	e684      	b.n	80013d8 <HAL_RCC_OscConfig+0xa4>
 80016ce:	f023 0301 	bic.w	r3, r3, #1
 80016d2:	672b      	str	r3, [r5, #112]	@ 0x70
 80016d4:	6f2b      	ldr	r3, [r5, #112]	@ 0x70
 80016d6:	f023 0304 	bic.w	r3, r3, #4
 80016da:	e680      	b.n	80013de <HAL_RCC_OscConfig+0xaa>
 80016dc:	f7ff fbb0 	bl	8000e40 <HAL_GetTick>
 80016e0:	1b40      	subs	r0, r0, r5
 80016e2:	42b8      	cmp	r0, r7
 80016e4:	f67f ae82 	bls.w	80013ec <HAL_RCC_OscConfig+0xb8>
 80016e8:	e6b5      	b.n	8001456 <HAL_RCC_OscConfig+0x122>
 80016ea:	4d67      	ldr	r5, [pc, #412]	@ (8001888 <HAL_RCC_OscConfig+0x554>)
 80016ec:	692b      	ldr	r3, [r5, #16]
 80016ee:	f003 0338 	and.w	r3, r3, #56	@ 0x38
 80016f2:	2b18      	cmp	r3, #24
 80016f4:	d07a      	beq.n	80017ec <HAL_RCC_OscConfig+0x4b8>
 80016f6:	682b      	ldr	r3, [r5, #0]
 80016f8:	2902      	cmp	r1, #2
 80016fa:	f023 7380 	bic.w	r3, r3, #16777216	@ 0x1000000
 80016fe:	602b      	str	r3, [r5, #0]
 8001700:	d167      	bne.n	80017d2 <HAL_RCC_OscConfig+0x49e>
 8001702:	f7ff fb9d 	bl	8000e40 <HAL_GetTick>
 8001706:	4606      	mov	r6, r0
 8001708:	682b      	ldr	r3, [r5, #0]
 800170a:	0199      	lsls	r1, r3, #6
 800170c:	d45b      	bmi.n	80017c6 <HAL_RCC_OscConfig+0x492>
 800170e:	6aab      	ldr	r3, [r5, #40]	@ 0x28
 8001710:	6aa2      	ldr	r2, [r4, #40]	@ 0x28
 8001712:	f423 737c 	bic.w	r3, r3, #1008	@ 0x3f0
 8001716:	f023 0303 	bic.w	r3, r3, #3
 800171a:	4313      	orrs	r3, r2
 800171c:	6ae2      	ldr	r2, [r4, #44]	@ 0x2c
 800171e:	ea43 1302 	orr.w	r3, r3, r2, lsl #4
 8001722:	62ab      	str	r3, [r5, #40]	@ 0x28
 8001724:	6b63      	ldr	r3, [r4, #52]	@ 0x34
 8001726:	6ba2      	ldr	r2, [r4, #56]	@ 0x38
 8001728:	3b01      	subs	r3, #1
 800172a:	3a01      	subs	r2, #1
 800172c:	025b      	lsls	r3, r3, #9
 800172e:	0412      	lsls	r2, r2, #16
 8001730:	b29b      	uxth	r3, r3
 8001732:	f402 02fe 	and.w	r2, r2, #8323072	@ 0x7f0000
 8001736:	4313      	orrs	r3, r2
 8001738:	6b22      	ldr	r2, [r4, #48]	@ 0x30
 800173a:	3a01      	subs	r2, #1
 800173c:	f3c2 0208 	ubfx	r2, r2, #0, #9
 8001740:	4313      	orrs	r3, r2
 8001742:	6be2      	ldr	r2, [r4, #60]	@ 0x3c
 8001744:	3a01      	subs	r2, #1
 8001746:	0612      	lsls	r2, r2, #24
 8001748:	f002 42fe 	and.w	r2, r2, #2130706432	@ 0x7f000000
 800174c:	4313      	orrs	r3, r2
 800174e:	632b      	str	r3, [r5, #48]	@ 0x30
 8001750:	6aeb      	ldr	r3, [r5, #44]	@ 0x2c
 8001752:	f023 0301 	bic.w	r3, r3, #1
 8001756:	62eb      	str	r3, [r5, #44]	@ 0x2c
 8001758:	6b6b      	ldr	r3, [r5, #52]	@ 0x34
 800175a:	6ca2      	ldr	r2, [r4, #72]	@ 0x48
 800175c:	f423 437f 	bic.w	r3, r3, #65280	@ 0xff00
 8001760:	f023 03f8 	bic.w	r3, r3, #248	@ 0xf8
 8001764:	ea43 03c2 	orr.w	r3, r3, r2, lsl #3
 8001768:	636b      	str	r3, [r5, #52]	@ 0x34
 800176a:	6aeb      	ldr	r3, [r5, #44]	@ 0x2c
 800176c:	6c22      	ldr	r2, [r4, #64]	@ 0x40
 800176e:	f023 030c 	bic.w	r3, r3, #12
 8001772:	4313      	orrs	r3, r2
 8001774:	62eb      	str	r3, [r5, #44]	@ 0x2c
 8001776:	6aeb      	ldr	r3, [r5, #44]	@ 0x2c
 8001778:	6c62      	ldr	r2, [r4, #68]	@ 0x44
 800177a:	f023 0302 	bic.w	r3, r3, #2
 800177e:	4313      	orrs	r3, r2
 8001780:	62eb      	str	r3, [r5, #44]	@ 0x2c
 8001782:	6aeb      	ldr	r3, [r5, #44]	@ 0x2c
 8001784:	f443 3380 	orr.w	r3, r3, #65536	@ 0x10000
 8001788:	62eb      	str	r3, [r5, #44]	@ 0x2c
 800178a:	6aeb      	ldr	r3, [r5, #44]	@ 0x2c
 800178c:	f443 3300 	orr.w	r3, r3, #131072	@ 0x20000
 8001790:	62eb      	str	r3, [r5, #44]	@ 0x2c
 8001792:	6aeb      	ldr	r3, [r5, #44]	@ 0x2c
 8001794:	f443 2380 	orr.w	r3, r3, #262144	@ 0x40000
 8001798:	62eb      	str	r3, [r5, #44]	@ 0x2c
 800179a:	6aeb      	ldr	r3, [r5, #44]	@ 0x2c
 800179c:	f043 0301 	orr.w	r3, r3, #1
 80017a0:	62eb      	str	r3, [r5, #44]	@ 0x2c
 80017a2:	682b      	ldr	r3, [r5, #0]
 80017a4:	f043 7380 	orr.w	r3, r3, #16777216	@ 0x1000000
 80017a8:	602b      	str	r3, [r5, #0]
 80017aa:	f7ff fb49 	bl	8000e40 <HAL_GetTick>
 80017ae:	4d36      	ldr	r5, [pc, #216]	@ (8001888 <HAL_RCC_OscConfig+0x554>)
 80017b0:	4604      	mov	r4, r0
 80017b2:	682b      	ldr	r3, [r5, #0]
 80017b4:	019a      	lsls	r2, r3, #6
 80017b6:	f53f ae21 	bmi.w	80013fc <HAL_RCC_OscConfig+0xc8>
 80017ba:	f7ff fb41 	bl	8000e40 <HAL_GetTick>
 80017be:	1b00      	subs	r0, r0, r4
 80017c0:	2802      	cmp	r0, #2
 80017c2:	d9f6      	bls.n	80017b2 <HAL_RCC_OscConfig+0x47e>
 80017c4:	e647      	b.n	8001456 <HAL_RCC_OscConfig+0x122>
 80017c6:	f7ff fb3b 	bl	8000e40 <HAL_GetTick>
 80017ca:	1b80      	subs	r0, r0, r6
 80017cc:	2802      	cmp	r0, #2
 80017ce:	d99b      	bls.n	8001708 <HAL_RCC_OscConfig+0x3d4>
 80017d0:	e641      	b.n	8001456 <HAL_RCC_OscConfig+0x122>
 80017d2:	f7ff fb35 	bl	8000e40 <HAL_GetTick>
 80017d6:	4604      	mov	r4, r0
 80017d8:	682b      	ldr	r3, [r5, #0]
 80017da:	019b      	lsls	r3, r3, #6
 80017dc:	f57f ae0e 	bpl.w	80013fc <HAL_RCC_OscConfig+0xc8>
 80017e0:	f7ff fb2e 	bl	8000e40 <HAL_GetTick>
 80017e4:	1b00      	subs	r0, r0, r4
 80017e6:	2802      	cmp	r0, #2
 80017e8:	d9f6      	bls.n	80017d8 <HAL_RCC_OscConfig+0x4a4>
 80017ea:	e634      	b.n	8001456 <HAL_RCC_OscConfig+0x122>
 80017ec:	2901      	cmp	r1, #1
 80017ee:	6aaa      	ldr	r2, [r5, #40]	@ 0x28
 80017f0:	6b2b      	ldr	r3, [r5, #48]	@ 0x30
 80017f2:	f43f ae18 	beq.w	8001426 <HAL_RCC_OscConfig+0xf2>
 80017f6:	f002 0103 	and.w	r1, r2, #3
 80017fa:	6aa0      	ldr	r0, [r4, #40]	@ 0x28
 80017fc:	4281      	cmp	r1, r0
 80017fe:	f47f ae12 	bne.w	8001426 <HAL_RCC_OscConfig+0xf2>
 8001802:	f3c2 1205 	ubfx	r2, r2, #4, #6
 8001806:	6ae1      	ldr	r1, [r4, #44]	@ 0x2c
 8001808:	428a      	cmp	r2, r1
 800180a:	f47f ae0c 	bne.w	8001426 <HAL_RCC_OscConfig+0xf2>
 800180e:	6b22      	ldr	r2, [r4, #48]	@ 0x30
 8001810:	f3c3 0108 	ubfx	r1, r3, #0, #9
 8001814:	3a01      	subs	r2, #1
 8001816:	4291      	cmp	r1, r2
 8001818:	f47f ae05 	bne.w	8001426 <HAL_RCC_OscConfig+0xf2>
 800181c:	6b62      	ldr	r2, [r4, #52]	@ 0x34
 800181e:	f3c3 2146 	ubfx	r1, r3, #9, #7
 8001822:	3a01      	subs	r2, #1
 8001824:	4291      	cmp	r1, r2
 8001826:	f47f adfe 	bne.w	8001426 <HAL_RCC_OscConfig+0xf2>
 800182a:	6ba2      	ldr	r2, [r4, #56]	@ 0x38
 800182c:	f3c3 4106 	ubfx	r1, r3, #16, #7
 8001830:	3a01      	subs	r2, #1
 8001832:	4291      	cmp	r1, r2
 8001834:	f47f adf7 	bne.w	8001426 <HAL_RCC_OscConfig+0xf2>
 8001838:	6be2      	ldr	r2, [r4, #60]	@ 0x3c
 800183a:	f3c3 6306 	ubfx	r3, r3, #24, #7
 800183e:	3a01      	subs	r2, #1
 8001840:	4293      	cmp	r3, r2
 8001842:	f47f adf0 	bne.w	8001426 <HAL_RCC_OscConfig+0xf2>
 8001846:	6b6b      	ldr	r3, [r5, #52]	@ 0x34
 8001848:	6ca2      	ldr	r2, [r4, #72]	@ 0x48
 800184a:	f3c3 03cc 	ubfx	r3, r3, #3, #13
 800184e:	429a      	cmp	r2, r3
 8001850:	f43f add4 	beq.w	80013fc <HAL_RCC_OscConfig+0xc8>
 8001854:	4d0c      	ldr	r5, [pc, #48]	@ (8001888 <HAL_RCC_OscConfig+0x554>)
 8001856:	6aeb      	ldr	r3, [r5, #44]	@ 0x2c
 8001858:	f023 0301 	bic.w	r3, r3, #1
 800185c:	62eb      	str	r3, [r5, #44]	@ 0x2c
 800185e:	f7ff faef 	bl	8000e40 <HAL_GetTick>
 8001862:	4606      	mov	r6, r0
 8001864:	f7ff faec 	bl	8000e40 <HAL_GetTick>
 8001868:	42b0      	cmp	r0, r6
 800186a:	d0fb      	beq.n	8001864 <HAL_RCC_OscConfig+0x530>
 800186c:	6b6b      	ldr	r3, [r5, #52]	@ 0x34
 800186e:	6ca2      	ldr	r2, [r4, #72]	@ 0x48
 8001870:	f423 437f 	bic.w	r3, r3, #65280	@ 0xff00
 8001874:	f023 03f8 	bic.w	r3, r3, #248	@ 0xf8
 8001878:	ea43 03c2 	orr.w	r3, r3, r2, lsl #3
 800187c:	636b      	str	r3, [r5, #52]	@ 0x34
 800187e:	6aeb      	ldr	r3, [r5, #44]	@ 0x2c
 8001880:	f043 0301 	orr.w	r3, r3, #1
 8001884:	62eb      	str	r3, [r5, #44]	@ 0x2c
 8001886:	e5b9      	b.n	80013fc <HAL_RCC_OscConfig+0xc8>
 8001888:	58024400 	.word	0x58024400

0800188c <HAL_RCC_GetSysClockFreq>:
 800188c:	4b49      	ldr	r3, [pc, #292]	@ (80019b4 <HAL_RCC_GetSysClockFreq+0x128>)
 800188e:	691a      	ldr	r2, [r3, #16]
 8001890:	f002 0238 	and.w	r2, r2, #56	@ 0x38
 8001894:	2a10      	cmp	r2, #16
 8001896:	b530      	push	{r4, r5, lr}
 8001898:	f000 8088 	beq.w	80019ac <HAL_RCC_GetSysClockFreq+0x120>
 800189c:	2a18      	cmp	r2, #24
 800189e:	d00c      	beq.n	80018ba <HAL_RCC_GetSysClockFreq+0x2e>
 80018a0:	2a00      	cmp	r2, #0
 80018a2:	f040 8085 	bne.w	80019b0 <HAL_RCC_GetSysClockFreq+0x124>
 80018a6:	681a      	ldr	r2, [r3, #0]
 80018a8:	4843      	ldr	r0, [pc, #268]	@ (80019b8 <HAL_RCC_GetSysClockFreq+0x12c>)
 80018aa:	f012 0f20 	tst.w	r2, #32
 80018ae:	d003      	beq.n	80018b8 <HAL_RCC_GetSysClockFreq+0x2c>
 80018b0:	681b      	ldr	r3, [r3, #0]
 80018b2:	f3c3 03c1 	ubfx	r3, r3, #3, #2
 80018b6:	40d8      	lsrs	r0, r3
 80018b8:	bd30      	pop	{r4, r5, pc}
 80018ba:	6a99      	ldr	r1, [r3, #40]	@ 0x28
 80018bc:	6a9d      	ldr	r5, [r3, #40]	@ 0x28
 80018be:	6adc      	ldr	r4, [r3, #44]	@ 0x2c
 80018c0:	f415 7f7c 	tst.w	r5, #1008	@ 0x3f0
 80018c4:	f3c5 1005 	ubfx	r0, r5, #4, #6
 80018c8:	6b5a      	ldr	r2, [r3, #52]	@ 0x34
 80018ca:	d0f5      	beq.n	80018b8 <HAL_RCC_GetSysClockFreq+0x2c>
 80018cc:	f3c2 02cc 	ubfx	r2, r2, #3, #13
 80018d0:	f004 0401 	and.w	r4, r4, #1
 80018d4:	f001 0103 	and.w	r1, r1, #3
 80018d8:	ee07 0a90 	vmov	s15, r0
 80018dc:	4362      	muls	r2, r4
 80018de:	eeb7 6a00 	vmov.f32	s12, #112	@ 0x3f800000  1.0
 80018e2:	2901      	cmp	r1, #1
 80018e4:	eeb8 7ae7 	vcvt.f32.s32	s14, s15
 80018e8:	ee06 2a90 	vmov	s13, r2
 80018ec:	eefa 6ae9 	vcvt.f32.s32	s13, s13, #13
 80018f0:	d04e      	beq.n	8001990 <HAL_RCC_GetSysClockFreq+0x104>
 80018f2:	2902      	cmp	r1, #2
 80018f4:	d03e      	beq.n	8001974 <HAL_RCC_GetSysClockFreq+0xe8>
 80018f6:	2900      	cmp	r1, #0
 80018f8:	d14a      	bne.n	8001990 <HAL_RCC_GetSysClockFreq+0x104>
 80018fa:	681a      	ldr	r2, [r3, #0]
 80018fc:	0692      	lsls	r2, r2, #26
 80018fe:	d527      	bpl.n	8001950 <HAL_RCC_GetSysClockFreq+0xc4>
 8001900:	6819      	ldr	r1, [r3, #0]
 8001902:	4a2d      	ldr	r2, [pc, #180]	@ (80019b8 <HAL_RCC_GetSysClockFreq+0x12c>)
 8001904:	f3c1 01c1 	ubfx	r1, r1, #3, #2
 8001908:	6b1b      	ldr	r3, [r3, #48]	@ 0x30
 800190a:	40ca      	lsrs	r2, r1
 800190c:	f3c3 0308 	ubfx	r3, r3, #0, #9
 8001910:	ee07 2a90 	vmov	s15, r2
 8001914:	eef8 5ae7 	vcvt.f32.s32	s11, s15
 8001918:	eec5 7a87 	vdiv.f32	s15, s11, s14
 800191c:	ee07 3a10 	vmov	s14, r3
 8001920:	eeb8 7ac7 	vcvt.f32.s32	s14, s14
 8001924:	ee37 7a26 	vadd.f32	s14, s14, s13
 8001928:	ee37 7a06 	vadd.f32	s14, s14, s12
 800192c:	ee67 7a87 	vmul.f32	s15, s15, s14
 8001930:	4b20      	ldr	r3, [pc, #128]	@ (80019b4 <HAL_RCC_GetSysClockFreq+0x128>)
 8001932:	6b1b      	ldr	r3, [r3, #48]	@ 0x30
 8001934:	f3c3 2346 	ubfx	r3, r3, #9, #7
 8001938:	3301      	adds	r3, #1
 800193a:	ee07 3a10 	vmov	s14, r3
 800193e:	eef8 6ac7 	vcvt.f32.s32	s13, s14
 8001942:	ee87 7aa6 	vdiv.f32	s14, s15, s13
 8001946:	eefc 7ac7 	vcvt.u32.f32	s15, s14
 800194a:	ee17 0a90 	vmov	r0, s15
 800194e:	e7b3      	b.n	80018b8 <HAL_RCC_GetSysClockFreq+0x2c>
 8001950:	6b1b      	ldr	r3, [r3, #48]	@ 0x30
 8001952:	f3c3 0308 	ubfx	r3, r3, #0, #9
 8001956:	ee07 3a90 	vmov	s15, r3
 800195a:	eef8 7ae7 	vcvt.f32.s32	s15, s15
 800195e:	ee77 7aa6 	vadd.f32	s15, s15, s13
 8001962:	ee77 7a86 	vadd.f32	s15, s15, s12
 8001966:	ed9f 6a15 	vldr	s12, [pc, #84]	@ 80019bc <HAL_RCC_GetSysClockFreq+0x130>
 800196a:	eec6 6a07 	vdiv.f32	s13, s12, s14
 800196e:	ee67 7aa6 	vmul.f32	s15, s15, s13
 8001972:	e7dd      	b.n	8001930 <HAL_RCC_GetSysClockFreq+0xa4>
 8001974:	6b1b      	ldr	r3, [r3, #48]	@ 0x30
 8001976:	f3c3 0308 	ubfx	r3, r3, #0, #9
 800197a:	ee07 3a90 	vmov	s15, r3
 800197e:	eef8 7ae7 	vcvt.f32.s32	s15, s15
 8001982:	ee77 7aa6 	vadd.f32	s15, s15, s13
 8001986:	ee77 7a86 	vadd.f32	s15, s15, s12
 800198a:	ed9f 6a0d 	vldr	s12, [pc, #52]	@ 80019c0 <HAL_RCC_GetSysClockFreq+0x134>
 800198e:	e7ec      	b.n	800196a <HAL_RCC_GetSysClockFreq+0xde>
 8001990:	6b1b      	ldr	r3, [r3, #48]	@ 0x30
 8001992:	f3c3 0308 	ubfx	r3, r3, #0, #9
 8001996:	ee07 3a90 	vmov	s15, r3
 800199a:	eef8 7ae7 	vcvt.f32.s32	s15, s15
 800199e:	ee77 7aa6 	vadd.f32	s15, s15, s13
 80019a2:	ee77 7a86 	vadd.f32	s15, s15, s12
 80019a6:	ed9f 6a07 	vldr	s12, [pc, #28]	@ 80019c4 <HAL_RCC_GetSysClockFreq+0x138>
 80019aa:	e7de      	b.n	800196a <HAL_RCC_GetSysClockFreq+0xde>
 80019ac:	4806      	ldr	r0, [pc, #24]	@ (80019c8 <HAL_RCC_GetSysClockFreq+0x13c>)
 80019ae:	e783      	b.n	80018b8 <HAL_RCC_GetSysClockFreq+0x2c>
 80019b0:	4806      	ldr	r0, [pc, #24]	@ (80019cc <HAL_RCC_GetSysClockFreq+0x140>)
 80019b2:	e781      	b.n	80018b8 <HAL_RCC_GetSysClockFreq+0x2c>
 80019b4:	58024400 	.word	0x58024400
 80019b8:	03d09000 	.word	0x03d09000
 80019bc:	4c742400 	.word	0x4c742400
 80019c0:	4bbebc20 	.word	0x4bbebc20
 80019c4:	4a742400 	.word	0x4a742400
 80019c8:	017d7840 	.word	0x017d7840
 80019cc:	003d0900 	.word	0x003d0900

080019d0 <HAL_RCC_ClockConfig>:
 80019d0:	e92d 41f0 	stmdb	sp!, {r4, r5, r6, r7, r8, lr}
 80019d4:	460d      	mov	r5, r1
 80019d6:	4604      	mov	r4, r0
 80019d8:	b910      	cbnz	r0, 80019e0 <HAL_RCC_ClockConfig+0x10>
 80019da:	2001      	movs	r0, #1
 80019dc:	e8bd 81f0 	ldmia.w	sp!, {r4, r5, r6, r7, r8, pc}
 80019e0:	4a88      	ldr	r2, [pc, #544]	@ (8001c04 <HAL_RCC_ClockConfig+0x234>)
 80019e2:	6813      	ldr	r3, [r2, #0]
 80019e4:	f003 030f 	and.w	r3, r3, #15
 80019e8:	428b      	cmp	r3, r1
 80019ea:	f0c0 8093 	bcc.w	8001b14 <HAL_RCC_ClockConfig+0x144>
 80019ee:	6823      	ldr	r3, [r4, #0]
 80019f0:	075f      	lsls	r7, r3, #29
 80019f2:	f100 809b 	bmi.w	8001b2c <HAL_RCC_ClockConfig+0x15c>
 80019f6:	071e      	lsls	r6, r3, #28
 80019f8:	d50b      	bpl.n	8001a12 <HAL_RCC_ClockConfig+0x42>
 80019fa:	4983      	ldr	r1, [pc, #524]	@ (8001c08 <HAL_RCC_ClockConfig+0x238>)
 80019fc:	6960      	ldr	r0, [r4, #20]
 80019fe:	69ca      	ldr	r2, [r1, #28]
 8001a00:	f002 0270 	and.w	r2, r2, #112	@ 0x70
 8001a04:	4290      	cmp	r0, r2
 8001a06:	d904      	bls.n	8001a12 <HAL_RCC_ClockConfig+0x42>
 8001a08:	69ca      	ldr	r2, [r1, #28]
 8001a0a:	f022 0270 	bic.w	r2, r2, #112	@ 0x70
 8001a0e:	4302      	orrs	r2, r0
 8001a10:	61ca      	str	r2, [r1, #28]
 8001a12:	06d8      	lsls	r0, r3, #27
 8001a14:	d50b      	bpl.n	8001a2e <HAL_RCC_ClockConfig+0x5e>
 8001a16:	497c      	ldr	r1, [pc, #496]	@ (8001c08 <HAL_RCC_ClockConfig+0x238>)
 8001a18:	69a0      	ldr	r0, [r4, #24]
 8001a1a:	69ca      	ldr	r2, [r1, #28]
 8001a1c:	f402 62e0 	and.w	r2, r2, #1792	@ 0x700
 8001a20:	4290      	cmp	r0, r2
 8001a22:	d904      	bls.n	8001a2e <HAL_RCC_ClockConfig+0x5e>
 8001a24:	69ca      	ldr	r2, [r1, #28]
 8001a26:	f422 62e0 	bic.w	r2, r2, #1792	@ 0x700
 8001a2a:	4302      	orrs	r2, r0
 8001a2c:	61ca      	str	r2, [r1, #28]
 8001a2e:	0699      	lsls	r1, r3, #26
 8001a30:	d50b      	bpl.n	8001a4a <HAL_RCC_ClockConfig+0x7a>
 8001a32:	4975      	ldr	r1, [pc, #468]	@ (8001c08 <HAL_RCC_ClockConfig+0x238>)
 8001a34:	69e0      	ldr	r0, [r4, #28]
 8001a36:	6a0a      	ldr	r2, [r1, #32]
 8001a38:	f002 0270 	and.w	r2, r2, #112	@ 0x70
 8001a3c:	4290      	cmp	r0, r2
 8001a3e:	d904      	bls.n	8001a4a <HAL_RCC_ClockConfig+0x7a>
 8001a40:	6a0a      	ldr	r2, [r1, #32]
 8001a42:	f022 0270 	bic.w	r2, r2, #112	@ 0x70
 8001a46:	4302      	orrs	r2, r0
 8001a48:	620a      	str	r2, [r1, #32]
 8001a4a:	079a      	lsls	r2, r3, #30
 8001a4c:	d50b      	bpl.n	8001a66 <HAL_RCC_ClockConfig+0x96>
 8001a4e:	496e      	ldr	r1, [pc, #440]	@ (8001c08 <HAL_RCC_ClockConfig+0x238>)
 8001a50:	68e0      	ldr	r0, [r4, #12]
 8001a52:	698a      	ldr	r2, [r1, #24]
 8001a54:	f002 020f 	and.w	r2, r2, #15
 8001a58:	4290      	cmp	r0, r2
 8001a5a:	d904      	bls.n	8001a66 <HAL_RCC_ClockConfig+0x96>
 8001a5c:	698a      	ldr	r2, [r1, #24]
 8001a5e:	f022 020f 	bic.w	r2, r2, #15
 8001a62:	4302      	orrs	r2, r0
 8001a64:	618a      	str	r2, [r1, #24]
 8001a66:	07df      	lsls	r7, r3, #31
 8001a68:	d46e      	bmi.n	8001b48 <HAL_RCC_ClockConfig+0x178>
 8001a6a:	6823      	ldr	r3, [r4, #0]
 8001a6c:	079e      	lsls	r6, r3, #30
 8001a6e:	f100 80a1 	bmi.w	8001bb4 <HAL_RCC_ClockConfig+0x1e4>
 8001a72:	4964      	ldr	r1, [pc, #400]	@ (8001c04 <HAL_RCC_ClockConfig+0x234>)
 8001a74:	680a      	ldr	r2, [r1, #0]
 8001a76:	f002 020f 	and.w	r2, r2, #15
 8001a7a:	42aa      	cmp	r2, r5
 8001a7c:	f200 80a8 	bhi.w	8001bd0 <HAL_RCC_ClockConfig+0x200>
 8001a80:	0758      	lsls	r0, r3, #29
 8001a82:	f100 80b1 	bmi.w	8001be8 <HAL_RCC_ClockConfig+0x218>
 8001a86:	0719      	lsls	r1, r3, #28
 8001a88:	d50b      	bpl.n	8001aa2 <HAL_RCC_ClockConfig+0xd2>
 8001a8a:	495f      	ldr	r1, [pc, #380]	@ (8001c08 <HAL_RCC_ClockConfig+0x238>)
 8001a8c:	6960      	ldr	r0, [r4, #20]
 8001a8e:	69ca      	ldr	r2, [r1, #28]
 8001a90:	f002 0270 	and.w	r2, r2, #112	@ 0x70
 8001a94:	4290      	cmp	r0, r2
 8001a96:	d204      	bcs.n	8001aa2 <HAL_RCC_ClockConfig+0xd2>
 8001a98:	69ca      	ldr	r2, [r1, #28]
 8001a9a:	f022 0270 	bic.w	r2, r2, #112	@ 0x70
 8001a9e:	4302      	orrs	r2, r0
 8001aa0:	61ca      	str	r2, [r1, #28]
 8001aa2:	06da      	lsls	r2, r3, #27
 8001aa4:	d50b      	bpl.n	8001abe <HAL_RCC_ClockConfig+0xee>
 8001aa6:	4958      	ldr	r1, [pc, #352]	@ (8001c08 <HAL_RCC_ClockConfig+0x238>)
 8001aa8:	69a0      	ldr	r0, [r4, #24]
 8001aaa:	69ca      	ldr	r2, [r1, #28]
 8001aac:	f402 62e0 	and.w	r2, r2, #1792	@ 0x700
 8001ab0:	4290      	cmp	r0, r2
 8001ab2:	d204      	bcs.n	8001abe <HAL_RCC_ClockConfig+0xee>
 8001ab4:	69ca      	ldr	r2, [r1, #28]
 8001ab6:	f422 62e0 	bic.w	r2, r2, #1792	@ 0x700
 8001aba:	4302      	orrs	r2, r0
 8001abc:	61ca      	str	r2, [r1, #28]
 8001abe:	069b      	lsls	r3, r3, #26
 8001ac0:	d50b      	bpl.n	8001ada <HAL_RCC_ClockConfig+0x10a>
 8001ac2:	4a51      	ldr	r2, [pc, #324]	@ (8001c08 <HAL_RCC_ClockConfig+0x238>)
 8001ac4:	69e1      	ldr	r1, [r4, #28]
 8001ac6:	6a13      	ldr	r3, [r2, #32]
 8001ac8:	f003 0370 	and.w	r3, r3, #112	@ 0x70
 8001acc:	4299      	cmp	r1, r3
 8001ace:	d204      	bcs.n	8001ada <HAL_RCC_ClockConfig+0x10a>
 8001ad0:	6a13      	ldr	r3, [r2, #32]
 8001ad2:	f023 0370 	bic.w	r3, r3, #112	@ 0x70
 8001ad6:	430b      	orrs	r3, r1
 8001ad8:	6213      	str	r3, [r2, #32]
 8001ada:	f7ff fed7 	bl	800188c <HAL_RCC_GetSysClockFreq>
 8001ade:	494a      	ldr	r1, [pc, #296]	@ (8001c08 <HAL_RCC_ClockConfig+0x238>)
 8001ae0:	4a4a      	ldr	r2, [pc, #296]	@ (8001c0c <HAL_RCC_ClockConfig+0x23c>)
 8001ae2:	698b      	ldr	r3, [r1, #24]
 8001ae4:	f3c3 2303 	ubfx	r3, r3, #8, #4
 8001ae8:	5cd3      	ldrb	r3, [r2, r3]
 8001aea:	f003 031f 	and.w	r3, r3, #31
 8001aee:	40d8      	lsrs	r0, r3
 8001af0:	698b      	ldr	r3, [r1, #24]
 8001af2:	f003 030f 	and.w	r3, r3, #15
 8001af6:	5cd3      	ldrb	r3, [r2, r3]
 8001af8:	4a45      	ldr	r2, [pc, #276]	@ (8001c10 <HAL_RCC_ClockConfig+0x240>)
 8001afa:	f003 031f 	and.w	r3, r3, #31
 8001afe:	fa20 f303 	lsr.w	r3, r0, r3
 8001b02:	6013      	str	r3, [r2, #0]
 8001b04:	4b43      	ldr	r3, [pc, #268]	@ (8001c14 <HAL_RCC_ClockConfig+0x244>)
 8001b06:	6018      	str	r0, [r3, #0]
 8001b08:	4b43      	ldr	r3, [pc, #268]	@ (8001c18 <HAL_RCC_ClockConfig+0x248>)
 8001b0a:	e8bd 41f0 	ldmia.w	sp!, {r4, r5, r6, r7, r8, lr}
 8001b0e:	6818      	ldr	r0, [r3, #0]
 8001b10:	f7ff b936 	b.w	8000d80 <HAL_InitTick>
 8001b14:	6813      	ldr	r3, [r2, #0]
 8001b16:	f023 030f 	bic.w	r3, r3, #15
 8001b1a:	430b      	orrs	r3, r1
 8001b1c:	6013      	str	r3, [r2, #0]
 8001b1e:	6813      	ldr	r3, [r2, #0]
 8001b20:	f003 030f 	and.w	r3, r3, #15
 8001b24:	428b      	cmp	r3, r1
 8001b26:	f47f af58 	bne.w	80019da <HAL_RCC_ClockConfig+0xa>
 8001b2a:	e760      	b.n	80019ee <HAL_RCC_ClockConfig+0x1e>
 8001b2c:	4936      	ldr	r1, [pc, #216]	@ (8001c08 <HAL_RCC_ClockConfig+0x238>)
 8001b2e:	6920      	ldr	r0, [r4, #16]
 8001b30:	698a      	ldr	r2, [r1, #24]
 8001b32:	f002 0270 	and.w	r2, r2, #112	@ 0x70
 8001b36:	4290      	cmp	r0, r2
 8001b38:	f67f af5d 	bls.w	80019f6 <HAL_RCC_ClockConfig+0x26>
 8001b3c:	698a      	ldr	r2, [r1, #24]
 8001b3e:	f022 0270 	bic.w	r2, r2, #112	@ 0x70
 8001b42:	4302      	orrs	r2, r0
 8001b44:	618a      	str	r2, [r1, #24]
 8001b46:	e756      	b.n	80019f6 <HAL_RCC_ClockConfig+0x26>
 8001b48:	4b2f      	ldr	r3, [pc, #188]	@ (8001c08 <HAL_RCC_ClockConfig+0x238>)
 8001b4a:	68a1      	ldr	r1, [r4, #8]
 8001b4c:	699a      	ldr	r2, [r3, #24]
 8001b4e:	f422 6270 	bic.w	r2, r2, #3840	@ 0xf00
 8001b52:	430a      	orrs	r2, r1
 8001b54:	619a      	str	r2, [r3, #24]
 8001b56:	6861      	ldr	r1, [r4, #4]
 8001b58:	681a      	ldr	r2, [r3, #0]
 8001b5a:	2902      	cmp	r1, #2
 8001b5c:	d11d      	bne.n	8001b9a <HAL_RCC_ClockConfig+0x1ca>
 8001b5e:	f412 3f00 	tst.w	r2, #131072	@ 0x20000
 8001b62:	f43f af3a 	beq.w	80019da <HAL_RCC_ClockConfig+0xa>
 8001b66:	691a      	ldr	r2, [r3, #16]
 8001b68:	f241 3888 	movw	r8, #5000	@ 0x1388
 8001b6c:	4f26      	ldr	r7, [pc, #152]	@ (8001c08 <HAL_RCC_ClockConfig+0x238>)
 8001b6e:	f022 0207 	bic.w	r2, r2, #7
 8001b72:	430a      	orrs	r2, r1
 8001b74:	611a      	str	r2, [r3, #16]
 8001b76:	f7ff f963 	bl	8000e40 <HAL_GetTick>
 8001b7a:	4606      	mov	r6, r0
 8001b7c:	693b      	ldr	r3, [r7, #16]
 8001b7e:	6862      	ldr	r2, [r4, #4]
 8001b80:	f003 0338 	and.w	r3, r3, #56	@ 0x38
 8001b84:	ebb3 0fc2 	cmp.w	r3, r2, lsl #3
 8001b88:	f43f af6f 	beq.w	8001a6a <HAL_RCC_ClockConfig+0x9a>
 8001b8c:	f7ff f958 	bl	8000e40 <HAL_GetTick>
 8001b90:	1b80      	subs	r0, r0, r6
 8001b92:	4540      	cmp	r0, r8
 8001b94:	d9f2      	bls.n	8001b7c <HAL_RCC_ClockConfig+0x1ac>
 8001b96:	2003      	movs	r0, #3
 8001b98:	e720      	b.n	80019dc <HAL_RCC_ClockConfig+0xc>
 8001b9a:	2903      	cmp	r1, #3
 8001b9c:	d102      	bne.n	8001ba4 <HAL_RCC_ClockConfig+0x1d4>
 8001b9e:	f012 7f00 	tst.w	r2, #33554432	@ 0x2000000
 8001ba2:	e7de      	b.n	8001b62 <HAL_RCC_ClockConfig+0x192>
 8001ba4:	2901      	cmp	r1, #1
 8001ba6:	d102      	bne.n	8001bae <HAL_RCC_ClockConfig+0x1de>
 8001ba8:	f412 7f80 	tst.w	r2, #256	@ 0x100
 8001bac:	e7d9      	b.n	8001b62 <HAL_RCC_ClockConfig+0x192>
 8001bae:	f012 0f04 	tst.w	r2, #4
 8001bb2:	e7d6      	b.n	8001b62 <HAL_RCC_ClockConfig+0x192>
 8001bb4:	4914      	ldr	r1, [pc, #80]	@ (8001c08 <HAL_RCC_ClockConfig+0x238>)
 8001bb6:	68e0      	ldr	r0, [r4, #12]
 8001bb8:	698a      	ldr	r2, [r1, #24]
 8001bba:	f002 020f 	and.w	r2, r2, #15
 8001bbe:	4290      	cmp	r0, r2
 8001bc0:	f4bf af57 	bcs.w	8001a72 <HAL_RCC_ClockConfig+0xa2>
 8001bc4:	698a      	ldr	r2, [r1, #24]
 8001bc6:	f022 020f 	bic.w	r2, r2, #15
 8001bca:	4302      	orrs	r2, r0
 8001bcc:	618a      	str	r2, [r1, #24]
 8001bce:	e750      	b.n	8001a72 <HAL_RCC_ClockConfig+0xa2>
 8001bd0:	680a      	ldr	r2, [r1, #0]
 8001bd2:	f022 020f 	bic.w	r2, r2, #15
 8001bd6:	432a      	orrs	r2, r5
 8001bd8:	600a      	str	r2, [r1, #0]
 8001bda:	680a      	ldr	r2, [r1, #0]
 8001bdc:	f002 020f 	and.w	r2, r2, #15
 8001be0:	42aa      	cmp	r2, r5
 8001be2:	f47f aefa 	bne.w	80019da <HAL_RCC_ClockConfig+0xa>
 8001be6:	e74b      	b.n	8001a80 <HAL_RCC_ClockConfig+0xb0>
 8001be8:	4907      	ldr	r1, [pc, #28]	@ (8001c08 <HAL_RCC_ClockConfig+0x238>)
 8001bea:	6920      	ldr	r0, [r4, #16]
 8001bec:	698a      	ldr	r2, [r1, #24]
 8001bee:	f002 0270 	and.w	r2, r2, #112	@ 0x70
 8001bf2:	4290      	cmp	r0, r2
 8001bf4:	f4bf af47 	bcs.w	8001a86 <HAL_RCC_ClockConfig+0xb6>
 8001bf8:	698a      	ldr	r2, [r1, #24]
 8001bfa:	f022 0270 	bic.w	r2, r2, #112	@ 0x70
 8001bfe:	4302      	orrs	r2, r0
 8001c00:	618a      	str	r2, [r1, #24]
 8001c02:	e740      	b.n	8001a86 <HAL_RCC_ClockConfig+0xb6>
 8001c04:	52002000 	.word	0x52002000
 8001c08:	58024400 	.word	0x58024400
 8001c0c:	08003fe7 	.word	0x08003fe7
 8001c10:	24000014 	.word	0x24000014
 8001c14:	24000018 	.word	0x24000018
 8001c18:	24000020 	.word	0x24000020

08001c1c <HAL_RCC_GetHCLKFreq>:
 8001c1c:	b508      	push	{r3, lr}
 8001c1e:	f7ff fe35 	bl	800188c <HAL_RCC_GetSysClockFreq>
 8001c22:	4a0b      	ldr	r2, [pc, #44]	@ (8001c50 <HAL_RCC_GetHCLKFreq+0x34>)
 8001c24:	490b      	ldr	r1, [pc, #44]	@ (8001c54 <HAL_RCC_GetHCLKFreq+0x38>)
 8001c26:	6993      	ldr	r3, [r2, #24]
 8001c28:	6992      	ldr	r2, [r2, #24]
 8001c2a:	f3c3 2303 	ubfx	r3, r3, #8, #4
 8001c2e:	f002 020f 	and.w	r2, r2, #15
 8001c32:	5ccb      	ldrb	r3, [r1, r3]
 8001c34:	f003 031f 	and.w	r3, r3, #31
 8001c38:	fa20 f303 	lsr.w	r3, r0, r3
 8001c3c:	5c88      	ldrb	r0, [r1, r2]
 8001c3e:	4a06      	ldr	r2, [pc, #24]	@ (8001c58 <HAL_RCC_GetHCLKFreq+0x3c>)
 8001c40:	f000 001f 	and.w	r0, r0, #31
 8001c44:	fa23 f000 	lsr.w	r0, r3, r0
 8001c48:	6010      	str	r0, [r2, #0]
 8001c4a:	4a04      	ldr	r2, [pc, #16]	@ (8001c5c <HAL_RCC_GetHCLKFreq+0x40>)
 8001c4c:	6013      	str	r3, [r2, #0]
 8001c4e:	bd08      	pop	{r3, pc}
 8001c50:	58024400 	.word	0x58024400
 8001c54:	08003fe7 	.word	0x08003fe7
 8001c58:	24000014 	.word	0x24000014
 8001c5c:	24000018 	.word	0x24000018

08001c60 <HAL_RCC_GetPCLK1Freq>:
 8001c60:	b508      	push	{r3, lr}
 8001c62:	f7ff ffdb 	bl	8001c1c <HAL_RCC_GetHCLKFreq>
 8001c66:	4b05      	ldr	r3, [pc, #20]	@ (8001c7c <HAL_RCC_GetPCLK1Freq+0x1c>)
 8001c68:	4a05      	ldr	r2, [pc, #20]	@ (8001c80 <HAL_RCC_GetPCLK1Freq+0x20>)
 8001c6a:	69db      	ldr	r3, [r3, #28]
 8001c6c:	f3c3 1302 	ubfx	r3, r3, #4, #3
 8001c70:	5cd3      	ldrb	r3, [r2, r3]
 8001c72:	f003 031f 	and.w	r3, r3, #31
 8001c76:	40d8      	lsrs	r0, r3
 8001c78:	bd08      	pop	{r3, pc}
 8001c7a:	bf00      	nop
 8001c7c:	58024400 	.word	0x58024400
 8001c80:	08003fe7 	.word	0x08003fe7

08001c84 <HAL_RCC_GetPCLK2Freq>:
 8001c84:	b508      	push	{r3, lr}
 8001c86:	f7ff ffc9 	bl	8001c1c <HAL_RCC_GetHCLKFreq>
 8001c8a:	4b05      	ldr	r3, [pc, #20]	@ (8001ca0 <HAL_RCC_GetPCLK2Freq+0x1c>)
 8001c8c:	4a05      	ldr	r2, [pc, #20]	@ (8001ca4 <HAL_RCC_GetPCLK2Freq+0x20>)
 8001c8e:	69db      	ldr	r3, [r3, #28]
 8001c90:	f3c3 2302 	ubfx	r3, r3, #8, #3
 8001c94:	5cd3      	ldrb	r3, [r2, r3]
 8001c96:	f003 031f 	and.w	r3, r3, #31
 8001c9a:	40d8      	lsrs	r0, r3
 8001c9c:	bd08      	pop	{r3, pc}
 8001c9e:	bf00      	nop
 8001ca0:	58024400 	.word	0x58024400
 8001ca4:	08003fe7 	.word	0x08003fe7

08001ca8 <RCCEx_PLL2_Config>:
 8001ca8:	b5f8      	push	{r3, r4, r5, r6, r7, lr}
 8001caa:	4c3a      	ldr	r4, [pc, #232]	@ (8001d94 <RCCEx_PLL2_Config+0xec>)
 8001cac:	4606      	mov	r6, r0
 8001cae:	460d      	mov	r5, r1
 8001cb0:	6aa3      	ldr	r3, [r4, #40]	@ 0x28
 8001cb2:	f003 0303 	and.w	r3, r3, #3
 8001cb6:	2b03      	cmp	r3, #3
 8001cb8:	d069      	beq.n	8001d8e <RCCEx_PLL2_Config+0xe6>
 8001cba:	6823      	ldr	r3, [r4, #0]
 8001cbc:	f023 6380 	bic.w	r3, r3, #67108864	@ 0x4000000
 8001cc0:	6023      	str	r3, [r4, #0]
 8001cc2:	f7ff f8bd 	bl	8000e40 <HAL_GetTick>
 8001cc6:	4607      	mov	r7, r0
 8001cc8:	6823      	ldr	r3, [r4, #0]
 8001cca:	011a      	lsls	r2, r3, #4
 8001ccc:	d44b      	bmi.n	8001d66 <RCCEx_PLL2_Config+0xbe>
 8001cce:	6aa3      	ldr	r3, [r4, #40]	@ 0x28
 8001cd0:	6832      	ldr	r2, [r6, #0]
 8001cd2:	f423 337c 	bic.w	r3, r3, #258048	@ 0x3f000
 8001cd6:	ea43 3302 	orr.w	r3, r3, r2, lsl #12
 8001cda:	62a3      	str	r3, [r4, #40]	@ 0x28
 8001cdc:	68b3      	ldr	r3, [r6, #8]
 8001cde:	68f2      	ldr	r2, [r6, #12]
 8001ce0:	3b01      	subs	r3, #1
 8001ce2:	3a01      	subs	r2, #1
 8001ce4:	025b      	lsls	r3, r3, #9
 8001ce6:	0412      	lsls	r2, r2, #16
 8001ce8:	b29b      	uxth	r3, r3
 8001cea:	f402 02fe 	and.w	r2, r2, #8323072	@ 0x7f0000
 8001cee:	4313      	orrs	r3, r2
 8001cf0:	6872      	ldr	r2, [r6, #4]
 8001cf2:	3a01      	subs	r2, #1
 8001cf4:	f3c2 0208 	ubfx	r2, r2, #0, #9
 8001cf8:	4313      	orrs	r3, r2
 8001cfa:	6932      	ldr	r2, [r6, #16]
 8001cfc:	3a01      	subs	r2, #1
 8001cfe:	0612      	lsls	r2, r2, #24
 8001d00:	f002 42fe 	and.w	r2, r2, #2130706432	@ 0x7f000000
 8001d04:	4313      	orrs	r3, r2
 8001d06:	63a3      	str	r3, [r4, #56]	@ 0x38
 8001d08:	6ae3      	ldr	r3, [r4, #44]	@ 0x2c
 8001d0a:	6972      	ldr	r2, [r6, #20]
 8001d0c:	f023 03c0 	bic.w	r3, r3, #192	@ 0xc0
 8001d10:	4313      	orrs	r3, r2
 8001d12:	62e3      	str	r3, [r4, #44]	@ 0x2c
 8001d14:	6ae3      	ldr	r3, [r4, #44]	@ 0x2c
 8001d16:	69b2      	ldr	r2, [r6, #24]
 8001d18:	f023 0320 	bic.w	r3, r3, #32
 8001d1c:	4313      	orrs	r3, r2
 8001d1e:	62e3      	str	r3, [r4, #44]	@ 0x2c
 8001d20:	6ae3      	ldr	r3, [r4, #44]	@ 0x2c
 8001d22:	f023 0310 	bic.w	r3, r3, #16
 8001d26:	62e3      	str	r3, [r4, #44]	@ 0x2c
 8001d28:	6be3      	ldr	r3, [r4, #60]	@ 0x3c
 8001d2a:	69f2      	ldr	r2, [r6, #28]
 8001d2c:	f423 437f 	bic.w	r3, r3, #65280	@ 0xff00
 8001d30:	f023 03f8 	bic.w	r3, r3, #248	@ 0xf8
 8001d34:	ea43 03c2 	orr.w	r3, r3, r2, lsl #3
 8001d38:	63e3      	str	r3, [r4, #60]	@ 0x3c
 8001d3a:	6ae3      	ldr	r3, [r4, #44]	@ 0x2c
 8001d3c:	f043 0310 	orr.w	r3, r3, #16
 8001d40:	62e3      	str	r3, [r4, #44]	@ 0x2c
 8001d42:	6ae3      	ldr	r3, [r4, #44]	@ 0x2c
 8001d44:	b9b5      	cbnz	r5, 8001d74 <RCCEx_PLL2_Config+0xcc>
 8001d46:	f443 2300 	orr.w	r3, r3, #524288	@ 0x80000
 8001d4a:	62e3      	str	r3, [r4, #44]	@ 0x2c
 8001d4c:	4c11      	ldr	r4, [pc, #68]	@ (8001d94 <RCCEx_PLL2_Config+0xec>)
 8001d4e:	6823      	ldr	r3, [r4, #0]
 8001d50:	f043 6380 	orr.w	r3, r3, #67108864	@ 0x4000000
 8001d54:	6023      	str	r3, [r4, #0]
 8001d56:	f7ff f873 	bl	8000e40 <HAL_GetTick>
 8001d5a:	4605      	mov	r5, r0
 8001d5c:	6823      	ldr	r3, [r4, #0]
 8001d5e:	011b      	lsls	r3, r3, #4
 8001d60:	d50f      	bpl.n	8001d82 <RCCEx_PLL2_Config+0xda>
 8001d62:	2000      	movs	r0, #0
 8001d64:	e005      	b.n	8001d72 <RCCEx_PLL2_Config+0xca>
 8001d66:	f7ff f86b 	bl	8000e40 <HAL_GetTick>
 8001d6a:	1bc0      	subs	r0, r0, r7
 8001d6c:	2802      	cmp	r0, #2
 8001d6e:	d9ab      	bls.n	8001cc8 <RCCEx_PLL2_Config+0x20>
 8001d70:	2003      	movs	r0, #3
 8001d72:	bdf8      	pop	{r3, r4, r5, r6, r7, pc}
 8001d74:	2d01      	cmp	r5, #1
 8001d76:	bf0c      	ite	eq
 8001d78:	f443 1380 	orreq.w	r3, r3, #1048576	@ 0x100000
 8001d7c:	f443 1300 	orrne.w	r3, r3, #2097152	@ 0x200000
 8001d80:	e7e3      	b.n	8001d4a <RCCEx_PLL2_Config+0xa2>
 8001d82:	f7ff f85d 	bl	8000e40 <HAL_GetTick>
 8001d86:	1b40      	subs	r0, r0, r5
 8001d88:	2802      	cmp	r0, #2
 8001d8a:	d9e7      	bls.n	8001d5c <RCCEx_PLL2_Config+0xb4>
 8001d8c:	e7f0      	b.n	8001d70 <RCCEx_PLL2_Config+0xc8>
 8001d8e:	2001      	movs	r0, #1
 8001d90:	e7ef      	b.n	8001d72 <RCCEx_PLL2_Config+0xca>
 8001d92:	bf00      	nop
 8001d94:	58024400 	.word	0x58024400

08001d98 <RCCEx_PLL3_Config>:
 8001d98:	b5f8      	push	{r3, r4, r5, r6, r7, lr}
 8001d9a:	4c3a      	ldr	r4, [pc, #232]	@ (8001e84 <RCCEx_PLL3_Config+0xec>)
 8001d9c:	4606      	mov	r6, r0
 8001d9e:	460d      	mov	r5, r1
 8001da0:	6aa3      	ldr	r3, [r4, #40]	@ 0x28
 8001da2:	f003 0303 	and.w	r3, r3, #3
 8001da6:	2b03      	cmp	r3, #3
 8001da8:	d069      	beq.n	8001e7e <RCCEx_PLL3_Config+0xe6>
 8001daa:	6823      	ldr	r3, [r4, #0]
 8001dac:	f023 5380 	bic.w	r3, r3, #268435456	@ 0x10000000
 8001db0:	6023      	str	r3, [r4, #0]
 8001db2:	f7ff f845 	bl	8000e40 <HAL_GetTick>
 8001db6:	4607      	mov	r7, r0
 8001db8:	6823      	ldr	r3, [r4, #0]
 8001dba:	009a      	lsls	r2, r3, #2
 8001dbc:	d44b      	bmi.n	8001e56 <RCCEx_PLL3_Config+0xbe>
 8001dbe:	6aa3      	ldr	r3, [r4, #40]	@ 0x28
 8001dc0:	6832      	ldr	r2, [r6, #0]
 8001dc2:	f023 737c 	bic.w	r3, r3, #66060288	@ 0x3f00000
 8001dc6:	ea43 5302 	orr.w	r3, r3, r2, lsl #20
 8001dca:	62a3      	str	r3, [r4, #40]	@ 0x28
 8001dcc:	68b3      	ldr	r3, [r6, #8]
 8001dce:	68f2      	ldr	r2, [r6, #12]
 8001dd0:	3b01      	subs	r3, #1
 8001dd2:	3a01      	subs	r2, #1
 8001dd4:	025b      	lsls	r3, r3, #9
 8001dd6:	0412      	lsls	r2, r2, #16
 8001dd8:	b29b      	uxth	r3, r3
 8001dda:	f402 02fe 	and.w	r2, r2, #8323072	@ 0x7f0000
 8001dde:	4313      	orrs	r3, r2
 8001de0:	6872      	ldr	r2, [r6, #4]
 8001de2:	3a01      	subs	r2, #1
 8001de4:	f3c2 0208 	ubfx	r2, r2, #0, #9
 8001de8:	4313      	orrs	r3, r2
 8001dea:	6932      	ldr	r2, [r6, #16]
 8001dec:	3a01      	subs	r2, #1
 8001dee:	0612      	lsls	r2, r2, #24
 8001df0:	f002 42fe 	and.w	r2, r2, #2130706432	@ 0x7f000000
 8001df4:	4313      	orrs	r3, r2
 8001df6:	6423      	str	r3, [r4, #64]	@ 0x40
 8001df8:	6ae3      	ldr	r3, [r4, #44]	@ 0x2c
 8001dfa:	6972      	ldr	r2, [r6, #20]
 8001dfc:	f423 6340 	bic.w	r3, r3, #3072	@ 0xc00
 8001e00:	4313      	orrs	r3, r2
 8001e02:	62e3      	str	r3, [r4, #44]	@ 0x2c
 8001e04:	6ae3      	ldr	r3, [r4, #44]	@ 0x2c
 8001e06:	69b2      	ldr	r2, [r6, #24]
 8001e08:	f423 7300 	bic.w	r3, r3, #512	@ 0x200
 8001e0c:	4313      	orrs	r3, r2
 8001e0e:	62e3      	str	r3, [r4, #44]	@ 0x2c
 8001e10:	6ae3      	ldr	r3, [r4, #44]	@ 0x2c
 8001e12:	f423 7380 	bic.w	r3, r3, #256	@ 0x100
 8001e16:	62e3      	str	r3, [r4, #44]	@ 0x2c
 8001e18:	6c63      	ldr	r3, [r4, #68]	@ 0x44
 8001e1a:	69f2      	ldr	r2, [r6, #28]
 8001e1c:	f423 437f 	bic.w	r3, r3, #65280	@ 0xff00
 8001e20:	f023 03f8 	bic.w	r3, r3, #248	@ 0xf8
 8001e24:	ea43 03c2 	orr.w	r3, r3, r2, lsl #3
 8001e28:	6463      	str	r3, [r4, #68]	@ 0x44
 8001e2a:	6ae3      	ldr	r3, [r4, #44]	@ 0x2c
 8001e2c:	f443 7380 	orr.w	r3, r3, #256	@ 0x100
 8001e30:	62e3      	str	r3, [r4, #44]	@ 0x2c
 8001e32:	6ae3      	ldr	r3, [r4, #44]	@ 0x2c
 8001e34:	b9b5      	cbnz	r5, 8001e64 <RCCEx_PLL3_Config+0xcc>
 8001e36:	f443 0380 	orr.w	r3, r3, #4194304	@ 0x400000
 8001e3a:	62e3      	str	r3, [r4, #44]	@ 0x2c
 8001e3c:	4c11      	ldr	r4, [pc, #68]	@ (8001e84 <RCCEx_PLL3_Config+0xec>)
 8001e3e:	6823      	ldr	r3, [r4, #0]
 8001e40:	f043 5380 	orr.w	r3, r3, #268435456	@ 0x10000000
 8001e44:	6023      	str	r3, [r4, #0]
 8001e46:	f7fe fffb 	bl	8000e40 <HAL_GetTick>
 8001e4a:	4605      	mov	r5, r0
 8001e4c:	6823      	ldr	r3, [r4, #0]
 8001e4e:	009b      	lsls	r3, r3, #2
 8001e50:	d50f      	bpl.n	8001e72 <RCCEx_PLL3_Config+0xda>
 8001e52:	2000      	movs	r0, #0
 8001e54:	e005      	b.n	8001e62 <RCCEx_PLL3_Config+0xca>
 8001e56:	f7fe fff3 	bl	8000e40 <HAL_GetTick>
 8001e5a:	1bc0      	subs	r0, r0, r7
 8001e5c:	2802      	cmp	r0, #2
 8001e5e:	d9ab      	bls.n	8001db8 <RCCEx_PLL3_Config+0x20>
 8001e60:	2003      	movs	r0, #3
 8001e62:	bdf8      	pop	{r3, r4, r5, r6, r7, pc}
 8001e64:	2d01      	cmp	r5, #1
 8001e66:	bf0c      	ite	eq
 8001e68:	f443 0300 	orreq.w	r3, r3, #8388608	@ 0x800000
 8001e6c:	f043 7380 	orrne.w	r3, r3, #16777216	@ 0x1000000
 8001e70:	e7e3      	b.n	8001e3a <RCCEx_PLL3_Config+0xa2>
 8001e72:	f7fe ffe5 	bl	8000e40 <HAL_GetTick>
 8001e76:	1b40      	subs	r0, r0, r5
 8001e78:	2802      	cmp	r0, #2
 8001e7a:	d9e7      	bls.n	8001e4c <RCCEx_PLL3_Config+0xb4>
 8001e7c:	e7f0      	b.n	8001e60 <RCCEx_PLL3_Config+0xc8>
 8001e7e:	2001      	movs	r0, #1
 8001e80:	e7ef      	b.n	8001e62 <RCCEx_PLL3_Config+0xca>
 8001e82:	bf00      	nop
 8001e84:	58024400 	.word	0x58024400

08001e88 <HAL_RCCEx_PeriphCLKConfig>:
 8001e88:	e92d 43f8 	stmdb	sp!, {r3, r4, r5, r6, r7, r8, r9, lr}
 8001e8c:	6803      	ldr	r3, [r0, #0]
 8001e8e:	4605      	mov	r5, r0
 8001e90:	0118      	lsls	r0, r3, #4
 8001e92:	d51e      	bpl.n	8001ed2 <HAL_RCCEx_PeriphCLKConfig+0x4a>
 8001e94:	6eab      	ldr	r3, [r5, #104]	@ 0x68
 8001e96:	f5b3 1f00 	cmp.w	r3, #2097152	@ 0x200000
 8001e9a:	d02b      	beq.n	8001ef4 <HAL_RCCEx_PeriphCLKConfig+0x6c>
 8001e9c:	d80f      	bhi.n	8001ebe <HAL_RCCEx_PeriphCLKConfig+0x36>
 8001e9e:	b1d3      	cbz	r3, 8001ed6 <HAL_RCCEx_PeriphCLKConfig+0x4e>
 8001ea0:	f5b3 1f80 	cmp.w	r3, #1048576	@ 0x100000
 8001ea4:	d01d      	beq.n	8001ee2 <HAL_RCCEx_PeriphCLKConfig+0x5a>
 8001ea6:	2601      	movs	r6, #1
 8001ea8:	682b      	ldr	r3, [r5, #0]
 8001eaa:	05d9      	lsls	r1, r3, #23
 8001eac:	d551      	bpl.n	8001f52 <HAL_RCCEx_PeriphCLKConfig+0xca>
 8001eae:	6dab      	ldr	r3, [r5, #88]	@ 0x58
 8001eb0:	2b04      	cmp	r3, #4
 8001eb2:	d84d      	bhi.n	8001f50 <HAL_RCCEx_PeriphCLKConfig+0xc8>
 8001eb4:	e8df f003 	tbb	[pc, r3]
 8001eb8:	29463f24 	.word	0x29463f24
 8001ebc:	29          	.byte	0x29
 8001ebd:	00          	.byte	0x00
 8001ebe:	f5b3 1f40 	cmp.w	r3, #3145728	@ 0x300000
 8001ec2:	d1f0      	bne.n	8001ea6 <HAL_RCCEx_PeriphCLKConfig+0x1e>
 8001ec4:	4a85      	ldr	r2, [pc, #532]	@ (80020dc <HAL_RCCEx_PeriphCLKConfig+0x254>)
 8001ec6:	6ea9      	ldr	r1, [r5, #104]	@ 0x68
 8001ec8:	6d13      	ldr	r3, [r2, #80]	@ 0x50
 8001eca:	f423 1340 	bic.w	r3, r3, #3145728	@ 0x300000
 8001ece:	430b      	orrs	r3, r1
 8001ed0:	6513      	str	r3, [r2, #80]	@ 0x50
 8001ed2:	2600      	movs	r6, #0
 8001ed4:	e7e8      	b.n	8001ea8 <HAL_RCCEx_PeriphCLKConfig+0x20>
 8001ed6:	4a81      	ldr	r2, [pc, #516]	@ (80020dc <HAL_RCCEx_PeriphCLKConfig+0x254>)
 8001ed8:	6ad3      	ldr	r3, [r2, #44]	@ 0x2c
 8001eda:	f443 3300 	orr.w	r3, r3, #131072	@ 0x20000
 8001ede:	62d3      	str	r3, [r2, #44]	@ 0x2c
 8001ee0:	e7f0      	b.n	8001ec4 <HAL_RCCEx_PeriphCLKConfig+0x3c>
 8001ee2:	2102      	movs	r1, #2
 8001ee4:	f105 0008 	add.w	r0, r5, #8
 8001ee8:	f7ff fede 	bl	8001ca8 <RCCEx_PLL2_Config>
 8001eec:	4606      	mov	r6, r0
 8001eee:	2800      	cmp	r0, #0
 8001ef0:	d1da      	bne.n	8001ea8 <HAL_RCCEx_PeriphCLKConfig+0x20>
 8001ef2:	e7e7      	b.n	8001ec4 <HAL_RCCEx_PeriphCLKConfig+0x3c>
 8001ef4:	2102      	movs	r1, #2
 8001ef6:	f105 0028 	add.w	r0, r5, #40	@ 0x28
 8001efa:	f7ff ff4d 	bl	8001d98 <RCCEx_PLL3_Config>
 8001efe:	e7f5      	b.n	8001eec <HAL_RCCEx_PeriphCLKConfig+0x64>
 8001f00:	4a76      	ldr	r2, [pc, #472]	@ (80020dc <HAL_RCCEx_PeriphCLKConfig+0x254>)
 8001f02:	6ad3      	ldr	r3, [r2, #44]	@ 0x2c
 8001f04:	f443 3300 	orr.w	r3, r3, #131072	@ 0x20000
 8001f08:	62d3      	str	r3, [r2, #44]	@ 0x2c
 8001f0a:	4634      	mov	r4, r6
 8001f0c:	bb1c      	cbnz	r4, 8001f56 <HAL_RCCEx_PeriphCLKConfig+0xce>
 8001f0e:	4a73      	ldr	r2, [pc, #460]	@ (80020dc <HAL_RCCEx_PeriphCLKConfig+0x254>)
 8001f10:	6da9      	ldr	r1, [r5, #88]	@ 0x58
 8001f12:	6d13      	ldr	r3, [r2, #80]	@ 0x50
 8001f14:	f023 0307 	bic.w	r3, r3, #7
 8001f18:	430b      	orrs	r3, r1
 8001f1a:	6513      	str	r3, [r2, #80]	@ 0x50
 8001f1c:	682b      	ldr	r3, [r5, #0]
 8001f1e:	059a      	lsls	r2, r3, #22
 8001f20:	d528      	bpl.n	8001f74 <HAL_RCCEx_PeriphCLKConfig+0xec>
 8001f22:	6deb      	ldr	r3, [r5, #92]	@ 0x5c
 8001f24:	2b80      	cmp	r3, #128	@ 0x80
 8001f26:	d043      	beq.n	8001fb0 <HAL_RCCEx_PeriphCLKConfig+0x128>
 8001f28:	d817      	bhi.n	8001f5a <HAL_RCCEx_PeriphCLKConfig+0xd2>
 8001f2a:	b3a3      	cbz	r3, 8001f96 <HAL_RCCEx_PeriphCLKConfig+0x10e>
 8001f2c:	2b40      	cmp	r3, #64	@ 0x40
 8001f2e:	d038      	beq.n	8001fa2 <HAL_RCCEx_PeriphCLKConfig+0x11a>
 8001f30:	2601      	movs	r6, #1
 8001f32:	4634      	mov	r4, r6
 8001f34:	e01e      	b.n	8001f74 <HAL_RCCEx_PeriphCLKConfig+0xec>
 8001f36:	2100      	movs	r1, #0
 8001f38:	f105 0008 	add.w	r0, r5, #8
 8001f3c:	f7ff feb4 	bl	8001ca8 <RCCEx_PLL2_Config>
 8001f40:	4604      	mov	r4, r0
 8001f42:	e7e3      	b.n	8001f0c <HAL_RCCEx_PeriphCLKConfig+0x84>
 8001f44:	2100      	movs	r1, #0
 8001f46:	f105 0028 	add.w	r0, r5, #40	@ 0x28
 8001f4a:	f7ff ff25 	bl	8001d98 <RCCEx_PLL3_Config>
 8001f4e:	e7f7      	b.n	8001f40 <HAL_RCCEx_PeriphCLKConfig+0xb8>
 8001f50:	2601      	movs	r6, #1
 8001f52:	4634      	mov	r4, r6
 8001f54:	e7e2      	b.n	8001f1c <HAL_RCCEx_PeriphCLKConfig+0x94>
 8001f56:	4626      	mov	r6, r4
 8001f58:	e7e0      	b.n	8001f1c <HAL_RCCEx_PeriphCLKConfig+0x94>
 8001f5a:	2bc0      	cmp	r3, #192	@ 0xc0
 8001f5c:	d002      	beq.n	8001f64 <HAL_RCCEx_PeriphCLKConfig+0xdc>
 8001f5e:	f5b3 7f80 	cmp.w	r3, #256	@ 0x100
 8001f62:	d1e5      	bne.n	8001f30 <HAL_RCCEx_PeriphCLKConfig+0xa8>
 8001f64:	bb54      	cbnz	r4, 8001fbc <HAL_RCCEx_PeriphCLKConfig+0x134>
 8001f66:	4a5d      	ldr	r2, [pc, #372]	@ (80020dc <HAL_RCCEx_PeriphCLKConfig+0x254>)
 8001f68:	6de9      	ldr	r1, [r5, #92]	@ 0x5c
 8001f6a:	6d13      	ldr	r3, [r2, #80]	@ 0x50
 8001f6c:	f423 73e0 	bic.w	r3, r3, #448	@ 0x1c0
 8001f70:	430b      	orrs	r3, r1
 8001f72:	6513      	str	r3, [r2, #80]	@ 0x50
 8001f74:	682b      	ldr	r3, [r5, #0]
 8001f76:	055b      	lsls	r3, r3, #21
 8001f78:	d531      	bpl.n	8001fde <HAL_RCCEx_PeriphCLKConfig+0x156>
 8001f7a:	f8d5 30a8 	ldr.w	r3, [r5, #168]	@ 0xa8
 8001f7e:	f5b3 0f80 	cmp.w	r3, #4194304	@ 0x400000
 8001f82:	d049      	beq.n	8002018 <HAL_RCCEx_PeriphCLKConfig+0x190>
 8001f84:	d81c      	bhi.n	8001fc0 <HAL_RCCEx_PeriphCLKConfig+0x138>
 8001f86:	2b00      	cmp	r3, #0
 8001f88:	d039      	beq.n	8001ffe <HAL_RCCEx_PeriphCLKConfig+0x176>
 8001f8a:	f5b3 1f00 	cmp.w	r3, #2097152	@ 0x200000
 8001f8e:	d03c      	beq.n	800200a <HAL_RCCEx_PeriphCLKConfig+0x182>
 8001f90:	2601      	movs	r6, #1
 8001f92:	4634      	mov	r4, r6
 8001f94:	e023      	b.n	8001fde <HAL_RCCEx_PeriphCLKConfig+0x156>
 8001f96:	4a51      	ldr	r2, [pc, #324]	@ (80020dc <HAL_RCCEx_PeriphCLKConfig+0x254>)
 8001f98:	6ad3      	ldr	r3, [r2, #44]	@ 0x2c
 8001f9a:	f443 3300 	orr.w	r3, r3, #131072	@ 0x20000
 8001f9e:	62d3      	str	r3, [r2, #44]	@ 0x2c
 8001fa0:	e7e0      	b.n	8001f64 <HAL_RCCEx_PeriphCLKConfig+0xdc>
 8001fa2:	2100      	movs	r1, #0
 8001fa4:	f105 0008 	add.w	r0, r5, #8
 8001fa8:	f7ff fe7e 	bl	8001ca8 <RCCEx_PLL2_Config>
 8001fac:	4604      	mov	r4, r0
 8001fae:	e7d9      	b.n	8001f64 <HAL_RCCEx_PeriphCLKConfig+0xdc>
 8001fb0:	2100      	movs	r1, #0
 8001fb2:	f105 0028 	add.w	r0, r5, #40	@ 0x28
 8001fb6:	f7ff feef 	bl	8001d98 <RCCEx_PLL3_Config>
 8001fba:	e7f7      	b.n	8001fac <HAL_RCCEx_PeriphCLKConfig+0x124>
 8001fbc:	4626      	mov	r6, r4
 8001fbe:	e7d9      	b.n	8001f74 <HAL_RCCEx_PeriphCLKConfig+0xec>
 8001fc0:	f5b3 0fc0 	cmp.w	r3, #6291456	@ 0x600000
 8001fc4:	d002      	beq.n	8001fcc <HAL_RCCEx_PeriphCLKConfig+0x144>
 8001fc6:	f5b3 0f00 	cmp.w	r3, #8388608	@ 0x800000
 8001fca:	d1e1      	bne.n	8001f90 <HAL_RCCEx_PeriphCLKConfig+0x108>
 8001fcc:	bb54      	cbnz	r4, 8002024 <HAL_RCCEx_PeriphCLKConfig+0x19c>
 8001fce:	4a43      	ldr	r2, [pc, #268]	@ (80020dc <HAL_RCCEx_PeriphCLKConfig+0x254>)
 8001fd0:	f8d5 10a8 	ldr.w	r1, [r5, #168]	@ 0xa8
 8001fd4:	6d93      	ldr	r3, [r2, #88]	@ 0x58
 8001fd6:	f423 0360 	bic.w	r3, r3, #14680064	@ 0xe00000
 8001fda:	430b      	orrs	r3, r1
 8001fdc:	6593      	str	r3, [r2, #88]	@ 0x58
 8001fde:	682b      	ldr	r3, [r5, #0]
 8001fe0:	051f      	lsls	r7, r3, #20
 8001fe2:	d530      	bpl.n	8002046 <HAL_RCCEx_PeriphCLKConfig+0x1be>
 8001fe4:	f8d5 30ac 	ldr.w	r3, [r5, #172]	@ 0xac
 8001fe8:	f1b3 7f00 	cmp.w	r3, #33554432	@ 0x2000000
 8001fec:	d045      	beq.n	800207a <HAL_RCCEx_PeriphCLKConfig+0x1f2>
 8001fee:	d81b      	bhi.n	8002028 <HAL_RCCEx_PeriphCLKConfig+0x1a0>
 8001ff0:	b3b3      	cbz	r3, 8002060 <HAL_RCCEx_PeriphCLKConfig+0x1d8>
 8001ff2:	f1b3 7f80 	cmp.w	r3, #16777216	@ 0x1000000
 8001ff6:	d039      	beq.n	800206c <HAL_RCCEx_PeriphCLKConfig+0x1e4>
 8001ff8:	2601      	movs	r6, #1
 8001ffa:	4634      	mov	r4, r6
 8001ffc:	e023      	b.n	8002046 <HAL_RCCEx_PeriphCLKConfig+0x1be>
 8001ffe:	4a37      	ldr	r2, [pc, #220]	@ (80020dc <HAL_RCCEx_PeriphCLKConfig+0x254>)
 8002000:	6ad3      	ldr	r3, [r2, #44]	@ 0x2c
 8002002:	f443 3300 	orr.w	r3, r3, #131072	@ 0x20000
 8002006:	62d3      	str	r3, [r2, #44]	@ 0x2c
 8002008:	e7e0      	b.n	8001fcc <HAL_RCCEx_PeriphCLKConfig+0x144>
 800200a:	2100      	movs	r1, #0
 800200c:	f105 0008 	add.w	r0, r5, #8
 8002010:	f7ff fe4a 	bl	8001ca8 <RCCEx_PLL2_Config>
 8002014:	4604      	mov	r4, r0
 8002016:	e7d9      	b.n	8001fcc <HAL_RCCEx_PeriphCLKConfig+0x144>
 8002018:	2100      	movs	r1, #0
 800201a:	f105 0028 	add.w	r0, r5, #40	@ 0x28
 800201e:	f7ff febb 	bl	8001d98 <RCCEx_PLL3_Config>
 8002022:	e7f7      	b.n	8002014 <HAL_RCCEx_PeriphCLKConfig+0x18c>
 8002024:	4626      	mov	r6, r4
 8002026:	e7da      	b.n	8001fde <HAL_RCCEx_PeriphCLKConfig+0x156>
 8002028:	f1b3 7f40 	cmp.w	r3, #50331648	@ 0x3000000
 800202c:	d002      	beq.n	8002034 <HAL_RCCEx_PeriphCLKConfig+0x1ac>
 800202e:	f1b3 6f80 	cmp.w	r3, #67108864	@ 0x4000000
 8002032:	d1e1      	bne.n	8001ff8 <HAL_RCCEx_PeriphCLKConfig+0x170>
 8002034:	bb3c      	cbnz	r4, 8002086 <HAL_RCCEx_PeriphCLKConfig+0x1fe>
 8002036:	4a29      	ldr	r2, [pc, #164]	@ (80020dc <HAL_RCCEx_PeriphCLKConfig+0x254>)
 8002038:	f8d5 10ac 	ldr.w	r1, [r5, #172]	@ 0xac
 800203c:	6d93      	ldr	r3, [r2, #88]	@ 0x58
 800203e:	f023 63e0 	bic.w	r3, r3, #117440512	@ 0x7000000
 8002042:	430b      	orrs	r3, r1
 8002044:	6593      	str	r3, [r2, #88]	@ 0x58
 8002046:	682b      	ldr	r3, [r5, #0]
 8002048:	0198      	lsls	r0, r3, #6
 800204a:	d528      	bpl.n	800209e <HAL_RCCEx_PeriphCLKConfig+0x216>
 800204c:	6ceb      	ldr	r3, [r5, #76]	@ 0x4c
 800204e:	2b20      	cmp	r3, #32
 8002050:	d03b      	beq.n	80020ca <HAL_RCCEx_PeriphCLKConfig+0x242>
 8002052:	d81a      	bhi.n	800208a <HAL_RCCEx_PeriphCLKConfig+0x202>
 8002054:	b1db      	cbz	r3, 800208e <HAL_RCCEx_PeriphCLKConfig+0x206>
 8002056:	2b10      	cmp	r3, #16
 8002058:	d031      	beq.n	80020be <HAL_RCCEx_PeriphCLKConfig+0x236>
 800205a:	2601      	movs	r6, #1
 800205c:	4634      	mov	r4, r6
 800205e:	e01e      	b.n	800209e <HAL_RCCEx_PeriphCLKConfig+0x216>
 8002060:	4a1e      	ldr	r2, [pc, #120]	@ (80020dc <HAL_RCCEx_PeriphCLKConfig+0x254>)
 8002062:	6ad3      	ldr	r3, [r2, #44]	@ 0x2c
 8002064:	f443 3300 	orr.w	r3, r3, #131072	@ 0x20000
 8002068:	62d3      	str	r3, [r2, #44]	@ 0x2c
 800206a:	e7e3      	b.n	8002034 <HAL_RCCEx_PeriphCLKConfig+0x1ac>
 800206c:	2100      	movs	r1, #0
 800206e:	f105 0008 	add.w	r0, r5, #8
 8002072:	f7ff fe19 	bl	8001ca8 <RCCEx_PLL2_Config>
 8002076:	4604      	mov	r4, r0
 8002078:	e7dc      	b.n	8002034 <HAL_RCCEx_PeriphCLKConfig+0x1ac>
 800207a:	2100      	movs	r1, #0
 800207c:	f105 0028 	add.w	r0, r5, #40	@ 0x28
 8002080:	f7ff fe8a 	bl	8001d98 <RCCEx_PLL3_Config>
 8002084:	e7f7      	b.n	8002076 <HAL_RCCEx_PeriphCLKConfig+0x1ee>
 8002086:	4626      	mov	r6, r4
 8002088:	e7dd      	b.n	8002046 <HAL_RCCEx_PeriphCLKConfig+0x1be>
 800208a:	2b30      	cmp	r3, #48	@ 0x30
 800208c:	d1e5      	bne.n	800205a <HAL_RCCEx_PeriphCLKConfig+0x1d2>
 800208e:	bb1c      	cbnz	r4, 80020d8 <HAL_RCCEx_PeriphCLKConfig+0x250>
 8002090:	4a12      	ldr	r2, [pc, #72]	@ (80020dc <HAL_RCCEx_PeriphCLKConfig+0x254>)
 8002092:	6ce9      	ldr	r1, [r5, #76]	@ 0x4c
 8002094:	6cd3      	ldr	r3, [r2, #76]	@ 0x4c
 8002096:	f023 0330 	bic.w	r3, r3, #48	@ 0x30
 800209a:	430b      	orrs	r3, r1
 800209c:	64d3      	str	r3, [r2, #76]	@ 0x4c
 800209e:	682b      	ldr	r3, [r5, #0]
 80020a0:	04d9      	lsls	r1, r3, #19
 80020a2:	d52c      	bpl.n	80020fe <HAL_RCCEx_PeriphCLKConfig+0x276>
 80020a4:	6e2b      	ldr	r3, [r5, #96]	@ 0x60
 80020a6:	f5b3 5f00 	cmp.w	r3, #8192	@ 0x2000
 80020aa:	d076      	beq.n	800219a <HAL_RCCEx_PeriphCLKConfig+0x312>
 80020ac:	d818      	bhi.n	80020e0 <HAL_RCCEx_PeriphCLKConfig+0x258>
 80020ae:	2b00      	cmp	r3, #0
 80020b0:	d066      	beq.n	8002180 <HAL_RCCEx_PeriphCLKConfig+0x2f8>
 80020b2:	f5b3 5f80 	cmp.w	r3, #4096	@ 0x1000
 80020b6:	d069      	beq.n	800218c <HAL_RCCEx_PeriphCLKConfig+0x304>
 80020b8:	2601      	movs	r6, #1
 80020ba:	4634      	mov	r4, r6
 80020bc:	e01f      	b.n	80020fe <HAL_RCCEx_PeriphCLKConfig+0x276>
 80020be:	4a07      	ldr	r2, [pc, #28]	@ (80020dc <HAL_RCCEx_PeriphCLKConfig+0x254>)
 80020c0:	6ad3      	ldr	r3, [r2, #44]	@ 0x2c
 80020c2:	f443 3300 	orr.w	r3, r3, #131072	@ 0x20000
 80020c6:	62d3      	str	r3, [r2, #44]	@ 0x2c
 80020c8:	e7e1      	b.n	800208e <HAL_RCCEx_PeriphCLKConfig+0x206>
 80020ca:	2102      	movs	r1, #2
 80020cc:	f105 0008 	add.w	r0, r5, #8
 80020d0:	f7ff fdea 	bl	8001ca8 <RCCEx_PLL2_Config>
 80020d4:	4604      	mov	r4, r0
 80020d6:	e7da      	b.n	800208e <HAL_RCCEx_PeriphCLKConfig+0x206>
 80020d8:	4626      	mov	r6, r4
 80020da:	e7e0      	b.n	800209e <HAL_RCCEx_PeriphCLKConfig+0x216>
 80020dc:	58024400 	.word	0x58024400
 80020e0:	f5b3 5f40 	cmp.w	r3, #12288	@ 0x3000
 80020e4:	d002      	beq.n	80020ec <HAL_RCCEx_PeriphCLKConfig+0x264>
 80020e6:	f5b3 4f80 	cmp.w	r3, #16384	@ 0x4000
 80020ea:	d1e5      	bne.n	80020b8 <HAL_RCCEx_PeriphCLKConfig+0x230>
 80020ec:	2c00      	cmp	r4, #0
 80020ee:	d15a      	bne.n	80021a6 <HAL_RCCEx_PeriphCLKConfig+0x31e>
 80020f0:	4a9e      	ldr	r2, [pc, #632]	@ (800236c <HAL_RCCEx_PeriphCLKConfig+0x4e4>)
 80020f2:	6e29      	ldr	r1, [r5, #96]	@ 0x60
 80020f4:	6d13      	ldr	r3, [r2, #80]	@ 0x50
 80020f6:	f423 43e0 	bic.w	r3, r3, #28672	@ 0x7000
 80020fa:	430b      	orrs	r3, r1
 80020fc:	6513      	str	r3, [r2, #80]	@ 0x50
 80020fe:	682b      	ldr	r3, [r5, #0]
 8002100:	049a      	lsls	r2, r3, #18
 8002102:	d50b      	bpl.n	800211c <HAL_RCCEx_PeriphCLKConfig+0x294>
 8002104:	6e6b      	ldr	r3, [r5, #100]	@ 0x64
 8002106:	f5b3 3f00 	cmp.w	r3, #131072	@ 0x20000
 800210a:	d066      	beq.n	80021da <HAL_RCCEx_PeriphCLKConfig+0x352>
 800210c:	d84d      	bhi.n	80021aa <HAL_RCCEx_PeriphCLKConfig+0x322>
 800210e:	2b00      	cmp	r3, #0
 8002110:	d053      	beq.n	80021ba <HAL_RCCEx_PeriphCLKConfig+0x332>
 8002112:	f5b3 3f80 	cmp.w	r3, #65536	@ 0x10000
 8002116:	d059      	beq.n	80021cc <HAL_RCCEx_PeriphCLKConfig+0x344>
 8002118:	2601      	movs	r6, #1
 800211a:	4634      	mov	r4, r6
 800211c:	682b      	ldr	r3, [r5, #0]
 800211e:	045b      	lsls	r3, r3, #17
 8002120:	d50c      	bpl.n	800213c <HAL_RCCEx_PeriphCLKConfig+0x2b4>
 8002122:	f8d5 30b0 	ldr.w	r3, [r5, #176]	@ 0xb0
 8002126:	f1b3 5f00 	cmp.w	r3, #536870912	@ 0x20000000
 800212a:	d077      	beq.n	800221c <HAL_RCCEx_PeriphCLKConfig+0x394>
 800212c:	d85d      	bhi.n	80021ea <HAL_RCCEx_PeriphCLKConfig+0x362>
 800212e:	2b00      	cmp	r3, #0
 8002130:	d063      	beq.n	80021fa <HAL_RCCEx_PeriphCLKConfig+0x372>
 8002132:	f1b3 5f80 	cmp.w	r3, #268435456	@ 0x10000000
 8002136:	d06a      	beq.n	800220e <HAL_RCCEx_PeriphCLKConfig+0x386>
 8002138:	2601      	movs	r6, #1
 800213a:	4634      	mov	r4, r6
 800213c:	682b      	ldr	r3, [r5, #0]
 800213e:	041f      	lsls	r7, r3, #16
 8002140:	d511      	bpl.n	8002166 <HAL_RCCEx_PeriphCLKConfig+0x2de>
 8002142:	6f2b      	ldr	r3, [r5, #112]	@ 0x70
 8002144:	f1b3 5f80 	cmp.w	r3, #268435456	@ 0x10000000
 8002148:	d070      	beq.n	800222c <HAL_RCCEx_PeriphCLKConfig+0x3a4>
 800214a:	f1b3 5f00 	cmp.w	r3, #536870912	@ 0x20000000
 800214e:	d073      	beq.n	8002238 <HAL_RCCEx_PeriphCLKConfig+0x3b0>
 8002150:	2b00      	cmp	r3, #0
 8002152:	d178      	bne.n	8002246 <HAL_RCCEx_PeriphCLKConfig+0x3be>
 8002154:	2c00      	cmp	r4, #0
 8002156:	d179      	bne.n	800224c <HAL_RCCEx_PeriphCLKConfig+0x3c4>
 8002158:	4a84      	ldr	r2, [pc, #528]	@ (800236c <HAL_RCCEx_PeriphCLKConfig+0x4e4>)
 800215a:	6f29      	ldr	r1, [r5, #112]	@ 0x70
 800215c:	6d13      	ldr	r3, [r2, #80]	@ 0x50
 800215e:	f023 5340 	bic.w	r3, r3, #805306368	@ 0x30000000
 8002162:	430b      	orrs	r3, r1
 8002164:	6513      	str	r3, [r2, #80]	@ 0x50
 8002166:	682b      	ldr	r3, [r5, #0]
 8002168:	01d8      	lsls	r0, r3, #7
 800216a:	d57f      	bpl.n	800226c <HAL_RCCEx_PeriphCLKConfig+0x3e4>
 800216c:	6cab      	ldr	r3, [r5, #72]	@ 0x48
 800216e:	2b03      	cmp	r3, #3
 8002170:	f200 80d8 	bhi.w	8002324 <HAL_RCCEx_PeriphCLKConfig+0x49c>
 8002174:	e8df f013 	tbh	[pc, r3, lsl #1]
 8002178:	006c0071 	.word	0x006c0071
 800217c:	007100cf 	.word	0x007100cf
 8002180:	4a7a      	ldr	r2, [pc, #488]	@ (800236c <HAL_RCCEx_PeriphCLKConfig+0x4e4>)
 8002182:	6ad3      	ldr	r3, [r2, #44]	@ 0x2c
 8002184:	f443 3300 	orr.w	r3, r3, #131072	@ 0x20000
 8002188:	62d3      	str	r3, [r2, #44]	@ 0x2c
 800218a:	e7af      	b.n	80020ec <HAL_RCCEx_PeriphCLKConfig+0x264>
 800218c:	2100      	movs	r1, #0
 800218e:	f105 0008 	add.w	r0, r5, #8
 8002192:	f7ff fd89 	bl	8001ca8 <RCCEx_PLL2_Config>
 8002196:	4604      	mov	r4, r0
 8002198:	e7a8      	b.n	80020ec <HAL_RCCEx_PeriphCLKConfig+0x264>
 800219a:	2100      	movs	r1, #0
 800219c:	f105 0028 	add.w	r0, r5, #40	@ 0x28
 80021a0:	f7ff fdfa 	bl	8001d98 <RCCEx_PLL3_Config>
 80021a4:	e7f7      	b.n	8002196 <HAL_RCCEx_PeriphCLKConfig+0x30e>
 80021a6:	4626      	mov	r6, r4
 80021a8:	e7a9      	b.n	80020fe <HAL_RCCEx_PeriphCLKConfig+0x276>
 80021aa:	f423 3280 	bic.w	r2, r3, #65536	@ 0x10000
 80021ae:	f5b2 2f80 	cmp.w	r2, #262144	@ 0x40000
 80021b2:	d002      	beq.n	80021ba <HAL_RCCEx_PeriphCLKConfig+0x332>
 80021b4:	f5b3 3f40 	cmp.w	r3, #196608	@ 0x30000
 80021b8:	d1ae      	bne.n	8002118 <HAL_RCCEx_PeriphCLKConfig+0x290>
 80021ba:	b9a4      	cbnz	r4, 80021e6 <HAL_RCCEx_PeriphCLKConfig+0x35e>
 80021bc:	4a6b      	ldr	r2, [pc, #428]	@ (800236c <HAL_RCCEx_PeriphCLKConfig+0x4e4>)
 80021be:	6e69      	ldr	r1, [r5, #100]	@ 0x64
 80021c0:	6d13      	ldr	r3, [r2, #80]	@ 0x50
 80021c2:	f423 23e0 	bic.w	r3, r3, #458752	@ 0x70000
 80021c6:	430b      	orrs	r3, r1
 80021c8:	6513      	str	r3, [r2, #80]	@ 0x50
 80021ca:	e7a7      	b.n	800211c <HAL_RCCEx_PeriphCLKConfig+0x294>
 80021cc:	2101      	movs	r1, #1
 80021ce:	f105 0008 	add.w	r0, r5, #8
 80021d2:	f7ff fd69 	bl	8001ca8 <RCCEx_PLL2_Config>
 80021d6:	4604      	mov	r4, r0
 80021d8:	e7ef      	b.n	80021ba <HAL_RCCEx_PeriphCLKConfig+0x332>
 80021da:	2101      	movs	r1, #1
 80021dc:	f105 0028 	add.w	r0, r5, #40	@ 0x28
 80021e0:	f7ff fdda 	bl	8001d98 <RCCEx_PLL3_Config>
 80021e4:	e7f7      	b.n	80021d6 <HAL_RCCEx_PeriphCLKConfig+0x34e>
 80021e6:	4626      	mov	r6, r4
 80021e8:	e798      	b.n	800211c <HAL_RCCEx_PeriphCLKConfig+0x294>
 80021ea:	f023 5280 	bic.w	r2, r3, #268435456	@ 0x10000000
 80021ee:	f1b2 4f80 	cmp.w	r2, #1073741824	@ 0x40000000
 80021f2:	d002      	beq.n	80021fa <HAL_RCCEx_PeriphCLKConfig+0x372>
 80021f4:	f1b3 5f40 	cmp.w	r3, #805306368	@ 0x30000000
 80021f8:	d19e      	bne.n	8002138 <HAL_RCCEx_PeriphCLKConfig+0x2b0>
 80021fa:	b9ac      	cbnz	r4, 8002228 <HAL_RCCEx_PeriphCLKConfig+0x3a0>
 80021fc:	4a5b      	ldr	r2, [pc, #364]	@ (800236c <HAL_RCCEx_PeriphCLKConfig+0x4e4>)
 80021fe:	f8d5 10b0 	ldr.w	r1, [r5, #176]	@ 0xb0
 8002202:	6d93      	ldr	r3, [r2, #88]	@ 0x58
 8002204:	f023 43e0 	bic.w	r3, r3, #1879048192	@ 0x70000000
 8002208:	430b      	orrs	r3, r1
 800220a:	6593      	str	r3, [r2, #88]	@ 0x58
 800220c:	e796      	b.n	800213c <HAL_RCCEx_PeriphCLKConfig+0x2b4>
 800220e:	2101      	movs	r1, #1
 8002210:	f105 0008 	add.w	r0, r5, #8
 8002214:	f7ff fd48 	bl	8001ca8 <RCCEx_PLL2_Config>
 8002218:	4604      	mov	r4, r0
 800221a:	e7ee      	b.n	80021fa <HAL_RCCEx_PeriphCLKConfig+0x372>
 800221c:	2101      	movs	r1, #1
 800221e:	f105 0028 	add.w	r0, r5, #40	@ 0x28
 8002222:	f7ff fdb9 	bl	8001d98 <RCCEx_PLL3_Config>
 8002226:	e7f7      	b.n	8002218 <HAL_RCCEx_PeriphCLKConfig+0x390>
 8002228:	4626      	mov	r6, r4
 800222a:	e787      	b.n	800213c <HAL_RCCEx_PeriphCLKConfig+0x2b4>
 800222c:	4a4f      	ldr	r2, [pc, #316]	@ (800236c <HAL_RCCEx_PeriphCLKConfig+0x4e4>)
 800222e:	6ad3      	ldr	r3, [r2, #44]	@ 0x2c
 8002230:	f443 3300 	orr.w	r3, r3, #131072	@ 0x20000
 8002234:	62d3      	str	r3, [r2, #44]	@ 0x2c
 8002236:	e78d      	b.n	8002154 <HAL_RCCEx_PeriphCLKConfig+0x2cc>
 8002238:	2101      	movs	r1, #1
 800223a:	f105 0008 	add.w	r0, r5, #8
 800223e:	f7ff fd33 	bl	8001ca8 <RCCEx_PLL2_Config>
 8002242:	4604      	mov	r4, r0
 8002244:	e786      	b.n	8002154 <HAL_RCCEx_PeriphCLKConfig+0x2cc>
 8002246:	2601      	movs	r6, #1
 8002248:	4634      	mov	r4, r6
 800224a:	e78c      	b.n	8002166 <HAL_RCCEx_PeriphCLKConfig+0x2de>
 800224c:	4626      	mov	r6, r4
 800224e:	e78a      	b.n	8002166 <HAL_RCCEx_PeriphCLKConfig+0x2de>
 8002250:	4a46      	ldr	r2, [pc, #280]	@ (800236c <HAL_RCCEx_PeriphCLKConfig+0x4e4>)
 8002252:	6ad3      	ldr	r3, [r2, #44]	@ 0x2c
 8002254:	f443 3300 	orr.w	r3, r3, #131072	@ 0x20000
 8002258:	62d3      	str	r3, [r2, #44]	@ 0x2c
 800225a:	2c00      	cmp	r4, #0
 800225c:	d165      	bne.n	800232a <HAL_RCCEx_PeriphCLKConfig+0x4a2>
 800225e:	4a43      	ldr	r2, [pc, #268]	@ (800236c <HAL_RCCEx_PeriphCLKConfig+0x4e4>)
 8002260:	6ca9      	ldr	r1, [r5, #72]	@ 0x48
 8002262:	6cd3      	ldr	r3, [r2, #76]	@ 0x4c
 8002264:	f023 0303 	bic.w	r3, r3, #3
 8002268:	430b      	orrs	r3, r1
 800226a:	64d3      	str	r3, [r2, #76]	@ 0x4c
 800226c:	682b      	ldr	r3, [r5, #0]
 800226e:	0259      	lsls	r1, r3, #9
 8002270:	d539      	bpl.n	80022e6 <HAL_RCCEx_PeriphCLKConfig+0x45e>
 8002272:	4f3f      	ldr	r7, [pc, #252]	@ (8002370 <HAL_RCCEx_PeriphCLKConfig+0x4e8>)
 8002274:	683b      	ldr	r3, [r7, #0]
 8002276:	f443 7380 	orr.w	r3, r3, #256	@ 0x100
 800227a:	603b      	str	r3, [r7, #0]
 800227c:	f7fe fde0 	bl	8000e40 <HAL_GetTick>
 8002280:	4680      	mov	r8, r0
 8002282:	683b      	ldr	r3, [r7, #0]
 8002284:	05da      	lsls	r2, r3, #23
 8002286:	d552      	bpl.n	800232e <HAL_RCCEx_PeriphCLKConfig+0x4a6>
 8002288:	2c00      	cmp	r4, #0
 800228a:	d175      	bne.n	8002378 <HAL_RCCEx_PeriphCLKConfig+0x4f0>
 800228c:	4b37      	ldr	r3, [pc, #220]	@ (800236c <HAL_RCCEx_PeriphCLKConfig+0x4e4>)
 800228e:	f8d5 00b4 	ldr.w	r0, [r5, #180]	@ 0xb4
 8002292:	6f1a      	ldr	r2, [r3, #112]	@ 0x70
 8002294:	4042      	eors	r2, r0
 8002296:	f412 7f40 	tst.w	r2, #768	@ 0x300
 800229a:	d00b      	beq.n	80022b4 <HAL_RCCEx_PeriphCLKConfig+0x42c>
 800229c:	6f1a      	ldr	r2, [r3, #112]	@ 0x70
 800229e:	6f19      	ldr	r1, [r3, #112]	@ 0x70
 80022a0:	f422 7240 	bic.w	r2, r2, #768	@ 0x300
 80022a4:	f441 3180 	orr.w	r1, r1, #65536	@ 0x10000
 80022a8:	6719      	str	r1, [r3, #112]	@ 0x70
 80022aa:	6f19      	ldr	r1, [r3, #112]	@ 0x70
 80022ac:	f421 3180 	bic.w	r1, r1, #65536	@ 0x10000
 80022b0:	6719      	str	r1, [r3, #112]	@ 0x70
 80022b2:	671a      	str	r2, [r3, #112]	@ 0x70
 80022b4:	f5b0 7f80 	cmp.w	r0, #256	@ 0x100
 80022b8:	d042      	beq.n	8002340 <HAL_RCCEx_PeriphCLKConfig+0x4b8>
 80022ba:	f8d5 30b4 	ldr.w	r3, [r5, #180]	@ 0xb4
 80022be:	492b      	ldr	r1, [pc, #172]	@ (800236c <HAL_RCCEx_PeriphCLKConfig+0x4e4>)
 80022c0:	f403 7240 	and.w	r2, r3, #768	@ 0x300
 80022c4:	f5b2 7f40 	cmp.w	r2, #768	@ 0x300
 80022c8:	d14b      	bne.n	8002362 <HAL_RCCEx_PeriphCLKConfig+0x4da>
 80022ca:	6908      	ldr	r0, [r1, #16]
 80022cc:	4a29      	ldr	r2, [pc, #164]	@ (8002374 <HAL_RCCEx_PeriphCLKConfig+0x4ec>)
 80022ce:	f420 507c 	bic.w	r0, r0, #16128	@ 0x3f00
 80022d2:	ea02 1213 	and.w	r2, r2, r3, lsr #4
 80022d6:	4302      	orrs	r2, r0
 80022d8:	610a      	str	r2, [r1, #16]
 80022da:	f3c3 030b 	ubfx	r3, r3, #0, #12
 80022de:	4a23      	ldr	r2, [pc, #140]	@ (800236c <HAL_RCCEx_PeriphCLKConfig+0x4e4>)
 80022e0:	6f11      	ldr	r1, [r2, #112]	@ 0x70
 80022e2:	430b      	orrs	r3, r1
 80022e4:	6713      	str	r3, [r2, #112]	@ 0x70
 80022e6:	682b      	ldr	r3, [r5, #0]
 80022e8:	07d8      	lsls	r0, r3, #31
 80022ea:	d509      	bpl.n	8002300 <HAL_RCCEx_PeriphCLKConfig+0x478>
 80022ec:	6feb      	ldr	r3, [r5, #124]	@ 0x7c
 80022ee:	2b10      	cmp	r3, #16
 80022f0:	d05a      	beq.n	80023a8 <HAL_RCCEx_PeriphCLKConfig+0x520>
 80022f2:	d843      	bhi.n	800237c <HAL_RCCEx_PeriphCLKConfig+0x4f4>
 80022f4:	2b00      	cmp	r3, #0
 80022f6:	d047      	beq.n	8002388 <HAL_RCCEx_PeriphCLKConfig+0x500>
 80022f8:	2b08      	cmp	r3, #8
 80022fa:	d04e      	beq.n	800239a <HAL_RCCEx_PeriphCLKConfig+0x512>
 80022fc:	2601      	movs	r6, #1
 80022fe:	4634      	mov	r4, r6
 8002300:	682b      	ldr	r3, [r5, #0]
 8002302:	0799      	lsls	r1, r3, #30
 8002304:	d566      	bpl.n	80023d4 <HAL_RCCEx_PeriphCLKConfig+0x54c>
 8002306:	6fab      	ldr	r3, [r5, #120]	@ 0x78
 8002308:	2b05      	cmp	r3, #5
 800230a:	d879      	bhi.n	8002400 <HAL_RCCEx_PeriphCLKConfig+0x578>
 800230c:	e8df f003 	tbb	[pc, r3]
 8002310:	5a72545a 	.word	0x5a72545a
 8002314:	5a5a      	.short	0x5a5a
 8002316:	2102      	movs	r1, #2
 8002318:	f105 0008 	add.w	r0, r5, #8
 800231c:	f7ff fcc4 	bl	8001ca8 <RCCEx_PLL2_Config>
 8002320:	4604      	mov	r4, r0
 8002322:	e79a      	b.n	800225a <HAL_RCCEx_PeriphCLKConfig+0x3d2>
 8002324:	2601      	movs	r6, #1
 8002326:	4634      	mov	r4, r6
 8002328:	e7a0      	b.n	800226c <HAL_RCCEx_PeriphCLKConfig+0x3e4>
 800232a:	4626      	mov	r6, r4
 800232c:	e79e      	b.n	800226c <HAL_RCCEx_PeriphCLKConfig+0x3e4>
 800232e:	f7fe fd87 	bl	8000e40 <HAL_GetTick>
 8002332:	eba0 0008 	sub.w	r0, r0, r8
 8002336:	2864      	cmp	r0, #100	@ 0x64
 8002338:	d9a3      	bls.n	8002282 <HAL_RCCEx_PeriphCLKConfig+0x3fa>
 800233a:	2603      	movs	r6, #3
 800233c:	4634      	mov	r4, r6
 800233e:	e7d2      	b.n	80022e6 <HAL_RCCEx_PeriphCLKConfig+0x45e>
 8002340:	f7fe fd7e 	bl	8000e40 <HAL_GetTick>
 8002344:	f8df 8024 	ldr.w	r8, [pc, #36]	@ 800236c <HAL_RCCEx_PeriphCLKConfig+0x4e4>
 8002348:	4607      	mov	r7, r0
 800234a:	f241 3988 	movw	r9, #5000	@ 0x1388
 800234e:	f8d8 3070 	ldr.w	r3, [r8, #112]	@ 0x70
 8002352:	079b      	lsls	r3, r3, #30
 8002354:	d4b1      	bmi.n	80022ba <HAL_RCCEx_PeriphCLKConfig+0x432>
 8002356:	f7fe fd73 	bl	8000e40 <HAL_GetTick>
 800235a:	1bc0      	subs	r0, r0, r7
 800235c:	4548      	cmp	r0, r9
 800235e:	d9f6      	bls.n	800234e <HAL_RCCEx_PeriphCLKConfig+0x4c6>
 8002360:	e7eb      	b.n	800233a <HAL_RCCEx_PeriphCLKConfig+0x4b2>
 8002362:	690a      	ldr	r2, [r1, #16]
 8002364:	f422 527c 	bic.w	r2, r2, #16128	@ 0x3f00
 8002368:	e7b6      	b.n	80022d8 <HAL_RCCEx_PeriphCLKConfig+0x450>
 800236a:	bf00      	nop
 800236c:	58024400 	.word	0x58024400
 8002370:	58024800 	.word	0x58024800
 8002374:	00ffffcf 	.word	0x00ffffcf
 8002378:	4626      	mov	r6, r4
 800237a:	e7b4      	b.n	80022e6 <HAL_RCCEx_PeriphCLKConfig+0x45e>
 800237c:	f023 0208 	bic.w	r2, r3, #8
 8002380:	2a20      	cmp	r2, #32
 8002382:	d001      	beq.n	8002388 <HAL_RCCEx_PeriphCLKConfig+0x500>
 8002384:	2b18      	cmp	r3, #24
 8002386:	d1b9      	bne.n	80022fc <HAL_RCCEx_PeriphCLKConfig+0x474>
 8002388:	b9a4      	cbnz	r4, 80023b4 <HAL_RCCEx_PeriphCLKConfig+0x52c>
 800238a:	4a20      	ldr	r2, [pc, #128]	@ (800240c <HAL_RCCEx_PeriphCLKConfig+0x584>)
 800238c:	6fe9      	ldr	r1, [r5, #124]	@ 0x7c
 800238e:	6d53      	ldr	r3, [r2, #84]	@ 0x54
 8002390:	f023 0338 	bic.w	r3, r3, #56	@ 0x38
 8002394:	430b      	orrs	r3, r1
 8002396:	6553      	str	r3, [r2, #84]	@ 0x54
 8002398:	e7b2      	b.n	8002300 <HAL_RCCEx_PeriphCLKConfig+0x478>
 800239a:	2101      	movs	r1, #1
 800239c:	f105 0008 	add.w	r0, r5, #8
 80023a0:	f7ff fc82 	bl	8001ca8 <RCCEx_PLL2_Config>
 80023a4:	4604      	mov	r4, r0
 80023a6:	e7ef      	b.n	8002388 <HAL_RCCEx_PeriphCLKConfig+0x500>
 80023a8:	2101      	movs	r1, #1
 80023aa:	f105 0028 	add.w	r0, r5, #40	@ 0x28
 80023ae:	f7ff fcf3 	bl	8001d98 <RCCEx_PLL3_Config>
 80023b2:	e7f7      	b.n	80023a4 <HAL_RCCEx_PeriphCLKConfig+0x51c>
 80023b4:	4626      	mov	r6, r4
 80023b6:	e7a3      	b.n	8002300 <HAL_RCCEx_PeriphCLKConfig+0x478>
 80023b8:	2101      	movs	r1, #1
 80023ba:	f105 0008 	add.w	r0, r5, #8
 80023be:	f7ff fc73 	bl	8001ca8 <RCCEx_PLL2_Config>
 80023c2:	4604      	mov	r4, r0
 80023c4:	b9fc      	cbnz	r4, 8002406 <HAL_RCCEx_PeriphCLKConfig+0x57e>
 80023c6:	4a11      	ldr	r2, [pc, #68]	@ (800240c <HAL_RCCEx_PeriphCLKConfig+0x584>)
 80023c8:	6fa9      	ldr	r1, [r5, #120]	@ 0x78
 80023ca:	6d53      	ldr	r3, [r2, #84]	@ 0x54
 80023cc:	f023 0307 	bic.w	r3, r3, #7
 80023d0:	430b      	orrs	r3, r1
 80023d2:	6553      	str	r3, [r2, #84]	@ 0x54
 80023d4:	682b      	ldr	r3, [r5, #0]
 80023d6:	075a      	lsls	r2, r3, #29
 80023d8:	d52b      	bpl.n	8002432 <HAL_RCCEx_PeriphCLKConfig+0x5aa>
 80023da:	f8d5 3094 	ldr.w	r3, [r5, #148]	@ 0x94
 80023de:	2b05      	cmp	r3, #5
 80023e0:	f200 816e 	bhi.w	80026c0 <HAL_RCCEx_PeriphCLKConfig+0x838>
 80023e4:	e8df f013 	tbh	[pc, r3, lsl #1]
 80023e8:	0014001a 	.word	0x0014001a
 80023ec:	001a0166 	.word	0x001a0166
 80023f0:	001a001a 	.word	0x001a001a
 80023f4:	2101      	movs	r1, #1
 80023f6:	f105 0028 	add.w	r0, r5, #40	@ 0x28
 80023fa:	f7ff fccd 	bl	8001d98 <RCCEx_PLL3_Config>
 80023fe:	e7e0      	b.n	80023c2 <HAL_RCCEx_PeriphCLKConfig+0x53a>
 8002400:	2601      	movs	r6, #1
 8002402:	4634      	mov	r4, r6
 8002404:	e7e6      	b.n	80023d4 <HAL_RCCEx_PeriphCLKConfig+0x54c>
 8002406:	4626      	mov	r6, r4
 8002408:	e7e4      	b.n	80023d4 <HAL_RCCEx_PeriphCLKConfig+0x54c>
 800240a:	bf00      	nop
 800240c:	58024400 	.word	0x58024400
 8002410:	2101      	movs	r1, #1
 8002412:	f105 0008 	add.w	r0, r5, #8
 8002416:	f7ff fc47 	bl	8001ca8 <RCCEx_PLL2_Config>
 800241a:	4604      	mov	r4, r0
 800241c:	2c00      	cmp	r4, #0
 800241e:	f040 8152 	bne.w	80026c6 <HAL_RCCEx_PeriphCLKConfig+0x83e>
 8002422:	4aaa      	ldr	r2, [pc, #680]	@ (80026cc <HAL_RCCEx_PeriphCLKConfig+0x844>)
 8002424:	f8d5 1094 	ldr.w	r1, [r5, #148]	@ 0x94
 8002428:	6d93      	ldr	r3, [r2, #88]	@ 0x58
 800242a:	f023 0307 	bic.w	r3, r3, #7
 800242e:	430b      	orrs	r3, r1
 8002430:	6593      	str	r3, [r2, #88]	@ 0x58
 8002432:	682b      	ldr	r3, [r5, #0]
 8002434:	069b      	lsls	r3, r3, #26
 8002436:	d510      	bpl.n	800245a <HAL_RCCEx_PeriphCLKConfig+0x5d2>
 8002438:	f8d5 3090 	ldr.w	r3, [r5, #144]	@ 0x90
 800243c:	f1b3 5f00 	cmp.w	r3, #536870912	@ 0x20000000
 8002440:	f000 8160 	beq.w	8002704 <HAL_RCCEx_PeriphCLKConfig+0x87c>
 8002444:	f200 8144 	bhi.w	80026d0 <HAL_RCCEx_PeriphCLKConfig+0x848>
 8002448:	2b00      	cmp	r3, #0
 800244a:	f000 814a 	beq.w	80026e2 <HAL_RCCEx_PeriphCLKConfig+0x85a>
 800244e:	f1b3 5f80 	cmp.w	r3, #268435456	@ 0x10000000
 8002452:	f000 8150 	beq.w	80026f6 <HAL_RCCEx_PeriphCLKConfig+0x86e>
 8002456:	2601      	movs	r6, #1
 8002458:	4634      	mov	r4, r6
 800245a:	682b      	ldr	r3, [r5, #0]
 800245c:	065f      	lsls	r7, r3, #25
 800245e:	d510      	bpl.n	8002482 <HAL_RCCEx_PeriphCLKConfig+0x5fa>
 8002460:	f8d5 309c 	ldr.w	r3, [r5, #156]	@ 0x9c
 8002464:	f5b3 6f00 	cmp.w	r3, #2048	@ 0x800
 8002468:	f000 816e 	beq.w	8002748 <HAL_RCCEx_PeriphCLKConfig+0x8c0>
 800246c:	f200 8152 	bhi.w	8002714 <HAL_RCCEx_PeriphCLKConfig+0x88c>
 8002470:	2b00      	cmp	r3, #0
 8002472:	f000 8158 	beq.w	8002726 <HAL_RCCEx_PeriphCLKConfig+0x89e>
 8002476:	f5b3 6f80 	cmp.w	r3, #1024	@ 0x400
 800247a:	f000 815e 	beq.w	800273a <HAL_RCCEx_PeriphCLKConfig+0x8b2>
 800247e:	2601      	movs	r6, #1
 8002480:	4634      	mov	r4, r6
 8002482:	682b      	ldr	r3, [r5, #0]
 8002484:	0618      	lsls	r0, r3, #24
 8002486:	d510      	bpl.n	80024aa <HAL_RCCEx_PeriphCLKConfig+0x622>
 8002488:	f8d5 30a0 	ldr.w	r3, [r5, #160]	@ 0xa0
 800248c:	f5b3 4f80 	cmp.w	r3, #16384	@ 0x4000
 8002490:	f000 817c 	beq.w	800278c <HAL_RCCEx_PeriphCLKConfig+0x904>
 8002494:	f200 8160 	bhi.w	8002758 <HAL_RCCEx_PeriphCLKConfig+0x8d0>
 8002498:	2b00      	cmp	r3, #0
 800249a:	f000 8166 	beq.w	800276a <HAL_RCCEx_PeriphCLKConfig+0x8e2>
 800249e:	f5b3 5f00 	cmp.w	r3, #8192	@ 0x2000
 80024a2:	f000 816c 	beq.w	800277e <HAL_RCCEx_PeriphCLKConfig+0x8f6>
 80024a6:	2601      	movs	r6, #1
 80024a8:	4634      	mov	r4, r6
 80024aa:	682b      	ldr	r3, [r5, #0]
 80024ac:	0719      	lsls	r1, r3, #28
 80024ae:	d514      	bpl.n	80024da <HAL_RCCEx_PeriphCLKConfig+0x652>
 80024b0:	f8d5 3084 	ldr.w	r3, [r5, #132]	@ 0x84
 80024b4:	f5b3 5f80 	cmp.w	r3, #4096	@ 0x1000
 80024b8:	d107      	bne.n	80024ca <HAL_RCCEx_PeriphCLKConfig+0x642>
 80024ba:	2102      	movs	r1, #2
 80024bc:	f105 0028 	add.w	r0, r5, #40	@ 0x28
 80024c0:	f7ff fc6a 	bl	8001d98 <RCCEx_PLL3_Config>
 80024c4:	2800      	cmp	r0, #0
 80024c6:	bf18      	it	ne
 80024c8:	2601      	movne	r6, #1
 80024ca:	4a80      	ldr	r2, [pc, #512]	@ (80026cc <HAL_RCCEx_PeriphCLKConfig+0x844>)
 80024cc:	f8d5 1084 	ldr.w	r1, [r5, #132]	@ 0x84
 80024d0:	6d53      	ldr	r3, [r2, #84]	@ 0x54
 80024d2:	f423 5340 	bic.w	r3, r3, #12288	@ 0x3000
 80024d6:	430b      	orrs	r3, r1
 80024d8:	6553      	str	r3, [r2, #84]	@ 0x54
 80024da:	682b      	ldr	r3, [r5, #0]
 80024dc:	06da      	lsls	r2, r3, #27
 80024de:	d514      	bpl.n	800250a <HAL_RCCEx_PeriphCLKConfig+0x682>
 80024e0:	f8d5 3098 	ldr.w	r3, [r5, #152]	@ 0x98
 80024e4:	f5b3 7f80 	cmp.w	r3, #256	@ 0x100
 80024e8:	d107      	bne.n	80024fa <HAL_RCCEx_PeriphCLKConfig+0x672>
 80024ea:	2102      	movs	r1, #2
 80024ec:	f105 0028 	add.w	r0, r5, #40	@ 0x28
 80024f0:	f7ff fc52 	bl	8001d98 <RCCEx_PLL3_Config>
 80024f4:	2800      	cmp	r0, #0
 80024f6:	bf18      	it	ne
 80024f8:	2601      	movne	r6, #1
 80024fa:	4a74      	ldr	r2, [pc, #464]	@ (80026cc <HAL_RCCEx_PeriphCLKConfig+0x844>)
 80024fc:	f8d5 1098 	ldr.w	r1, [r5, #152]	@ 0x98
 8002500:	6d93      	ldr	r3, [r2, #88]	@ 0x58
 8002502:	f423 7340 	bic.w	r3, r3, #768	@ 0x300
 8002506:	430b      	orrs	r3, r1
 8002508:	6593      	str	r3, [r2, #88]	@ 0x58
 800250a:	682b      	ldr	r3, [r5, #0]
 800250c:	031b      	lsls	r3, r3, #12
 800250e:	d51b      	bpl.n	8002548 <HAL_RCCEx_PeriphCLKConfig+0x6c0>
 8002510:	f8d5 10a4 	ldr.w	r1, [r5, #164]	@ 0xa4
 8002514:	f5b1 3f80 	cmp.w	r1, #65536	@ 0x10000
 8002518:	f000 8140 	beq.w	800279c <HAL_RCCEx_PeriphCLKConfig+0x914>
 800251c:	f5b1 3f00 	cmp.w	r1, #131072	@ 0x20000
 8002520:	d007      	beq.n	8002532 <HAL_RCCEx_PeriphCLKConfig+0x6aa>
 8002522:	2900      	cmp	r1, #0
 8002524:	f040 8140 	bne.w	80027a8 <HAL_RCCEx_PeriphCLKConfig+0x920>
 8002528:	f105 0008 	add.w	r0, r5, #8
 800252c:	f7ff fbbc 	bl	8001ca8 <RCCEx_PLL2_Config>
 8002530:	4604      	mov	r4, r0
 8002532:	2c00      	cmp	r4, #0
 8002534:	f040 813b 	bne.w	80027ae <HAL_RCCEx_PeriphCLKConfig+0x926>
 8002538:	4a64      	ldr	r2, [pc, #400]	@ (80026cc <HAL_RCCEx_PeriphCLKConfig+0x844>)
 800253a:	f8d5 10a4 	ldr.w	r1, [r5, #164]	@ 0xa4
 800253e:	6d93      	ldr	r3, [r2, #88]	@ 0x58
 8002540:	f423 3340 	bic.w	r3, r3, #196608	@ 0x30000
 8002544:	430b      	orrs	r3, r1
 8002546:	6593      	str	r3, [r2, #88]	@ 0x58
 8002548:	682b      	ldr	r3, [r5, #0]
 800254a:	035f      	lsls	r7, r3, #13
 800254c:	d50f      	bpl.n	800256e <HAL_RCCEx_PeriphCLKConfig+0x6e6>
 800254e:	f8d5 3088 	ldr.w	r3, [r5, #136]	@ 0x88
 8002552:	f5b3 1f00 	cmp.w	r3, #2097152	@ 0x200000
 8002556:	f000 813b 	beq.w	80027d0 <HAL_RCCEx_PeriphCLKConfig+0x948>
 800255a:	f5b3 1f40 	cmp.w	r3, #3145728	@ 0x300000
 800255e:	f000 812d 	beq.w	80027bc <HAL_RCCEx_PeriphCLKConfig+0x934>
 8002562:	f5b3 1f80 	cmp.w	r3, #1048576	@ 0x100000
 8002566:	f000 8124 	beq.w	80027b2 <HAL_RCCEx_PeriphCLKConfig+0x92a>
 800256a:	2601      	movs	r6, #1
 800256c:	4634      	mov	r4, r6
 800256e:	682b      	ldr	r3, [r5, #0]
 8002570:	03d8      	lsls	r0, r3, #15
 8002572:	d509      	bpl.n	8002588 <HAL_RCCEx_PeriphCLKConfig+0x700>
 8002574:	6d2b      	ldr	r3, [r5, #80]	@ 0x50
 8002576:	2b00      	cmp	r3, #0
 8002578:	f000 8133 	beq.w	80027e2 <HAL_RCCEx_PeriphCLKConfig+0x95a>
 800257c:	f5b3 3f80 	cmp.w	r3, #65536	@ 0x10000
 8002580:	f000 813d 	beq.w	80027fe <HAL_RCCEx_PeriphCLKConfig+0x976>
 8002584:	2601      	movs	r6, #1
 8002586:	4634      	mov	r4, r6
 8002588:	682b      	ldr	r3, [r5, #0]
 800258a:	0099      	lsls	r1, r3, #2
 800258c:	d507      	bpl.n	800259e <HAL_RCCEx_PeriphCLKConfig+0x716>
 800258e:	2102      	movs	r1, #2
 8002590:	f105 0028 	add.w	r0, r5, #40	@ 0x28
 8002594:	f7ff fc00 	bl	8001d98 <RCCEx_PLL3_Config>
 8002598:	2800      	cmp	r0, #0
 800259a:	bf18      	it	ne
 800259c:	2601      	movne	r6, #1
 800259e:	e9d5 3100 	ldrd	r3, r1, [r5]
 80025a2:	039a      	lsls	r2, r3, #14
 80025a4:	f140 8143 	bpl.w	800282e <HAL_RCCEx_PeriphCLKConfig+0x9a6>
 80025a8:	f8d5 0080 	ldr.w	r0, [r5, #128]	@ 0x80
 80025ac:	f5b0 7f80 	cmp.w	r0, #256	@ 0x100
 80025b0:	f000 813f 	beq.w	8002832 <HAL_RCCEx_PeriphCLKConfig+0x9aa>
 80025b4:	f200 812c 	bhi.w	8002810 <HAL_RCCEx_PeriphCLKConfig+0x988>
 80025b8:	2800      	cmp	r0, #0
 80025ba:	f000 812f 	beq.w	800281c <HAL_RCCEx_PeriphCLKConfig+0x994>
 80025be:	2401      	movs	r4, #1
 80025c0:	02df      	lsls	r7, r3, #11
 80025c2:	d506      	bpl.n	80025d2 <HAL_RCCEx_PeriphCLKConfig+0x74a>
 80025c4:	4841      	ldr	r0, [pc, #260]	@ (80026cc <HAL_RCCEx_PeriphCLKConfig+0x844>)
 80025c6:	6f6e      	ldr	r6, [r5, #116]	@ 0x74
 80025c8:	6d02      	ldr	r2, [r0, #80]	@ 0x50
 80025ca:	f022 4200 	bic.w	r2, r2, #2147483648	@ 0x80000000
 80025ce:	4332      	orrs	r2, r6
 80025d0:	6502      	str	r2, [r0, #80]	@ 0x50
 80025d2:	00de      	lsls	r6, r3, #3
 80025d4:	d507      	bpl.n	80025e6 <HAL_RCCEx_PeriphCLKConfig+0x75e>
 80025d6:	483d      	ldr	r0, [pc, #244]	@ (80026cc <HAL_RCCEx_PeriphCLKConfig+0x844>)
 80025d8:	f8d5 60b8 	ldr.w	r6, [r5, #184]	@ 0xb8
 80025dc:	6902      	ldr	r2, [r0, #16]
 80025de:	f422 4280 	bic.w	r2, r2, #16384	@ 0x4000
 80025e2:	4332      	orrs	r2, r6
 80025e4:	6102      	str	r2, [r0, #16]
 80025e6:	0298      	lsls	r0, r3, #10
 80025e8:	d506      	bpl.n	80025f8 <HAL_RCCEx_PeriphCLKConfig+0x770>
 80025ea:	4838      	ldr	r0, [pc, #224]	@ (80026cc <HAL_RCCEx_PeriphCLKConfig+0x844>)
 80025ec:	6eee      	ldr	r6, [r5, #108]	@ 0x6c
 80025ee:	6d02      	ldr	r2, [r0, #80]	@ 0x50
 80025f0:	f022 7280 	bic.w	r2, r2, #16777216	@ 0x1000000
 80025f4:	4332      	orrs	r2, r6
 80025f6:	6502      	str	r2, [r0, #80]	@ 0x50
 80025f8:	005a      	lsls	r2, r3, #1
 80025fa:	d509      	bpl.n	8002610 <HAL_RCCEx_PeriphCLKConfig+0x788>
 80025fc:	4a33      	ldr	r2, [pc, #204]	@ (80026cc <HAL_RCCEx_PeriphCLKConfig+0x844>)
 80025fe:	6910      	ldr	r0, [r2, #16]
 8002600:	f420 4000 	bic.w	r0, r0, #32768	@ 0x8000
 8002604:	6110      	str	r0, [r2, #16]
 8002606:	6910      	ldr	r0, [r2, #16]
 8002608:	f8d5 60bc 	ldr.w	r6, [r5, #188]	@ 0xbc
 800260c:	4330      	orrs	r0, r6
 800260e:	6110      	str	r0, [r2, #16]
 8002610:	2b00      	cmp	r3, #0
 8002612:	da06      	bge.n	8002622 <HAL_RCCEx_PeriphCLKConfig+0x79a>
 8002614:	482d      	ldr	r0, [pc, #180]	@ (80026cc <HAL_RCCEx_PeriphCLKConfig+0x844>)
 8002616:	6d6e      	ldr	r6, [r5, #84]	@ 0x54
 8002618:	6cc2      	ldr	r2, [r0, #76]	@ 0x4c
 800261a:	f022 5240 	bic.w	r2, r2, #805306368	@ 0x30000000
 800261e:	4332      	orrs	r2, r6
 8002620:	64c2      	str	r2, [r0, #76]	@ 0x4c
 8002622:	021f      	lsls	r7, r3, #8
 8002624:	d507      	bpl.n	8002636 <HAL_RCCEx_PeriphCLKConfig+0x7ae>
 8002626:	4a29      	ldr	r2, [pc, #164]	@ (80026cc <HAL_RCCEx_PeriphCLKConfig+0x844>)
 8002628:	f8d5 008c 	ldr.w	r0, [r5, #140]	@ 0x8c
 800262c:	6d53      	ldr	r3, [r2, #84]	@ 0x54
 800262e:	f423 0340 	bic.w	r3, r3, #12582912	@ 0xc00000
 8002632:	4303      	orrs	r3, r0
 8002634:	6553      	str	r3, [r2, #84]	@ 0x54
 8002636:	07ce      	lsls	r6, r1, #31
 8002638:	d506      	bpl.n	8002648 <HAL_RCCEx_PeriphCLKConfig+0x7c0>
 800263a:	2100      	movs	r1, #0
 800263c:	f105 0008 	add.w	r0, r5, #8
 8002640:	f7ff fb32 	bl	8001ca8 <RCCEx_PLL2_Config>
 8002644:	4607      	mov	r7, r0
 8002646:	b900      	cbnz	r0, 800264a <HAL_RCCEx_PeriphCLKConfig+0x7c2>
 8002648:	4627      	mov	r7, r4
 800264a:	686b      	ldr	r3, [r5, #4]
 800264c:	079c      	lsls	r4, r3, #30
 800264e:	d506      	bpl.n	800265e <HAL_RCCEx_PeriphCLKConfig+0x7d6>
 8002650:	2101      	movs	r1, #1
 8002652:	f105 0008 	add.w	r0, r5, #8
 8002656:	f7ff fb27 	bl	8001ca8 <RCCEx_PLL2_Config>
 800265a:	4606      	mov	r6, r0
 800265c:	b900      	cbnz	r0, 8002660 <HAL_RCCEx_PeriphCLKConfig+0x7d8>
 800265e:	463e      	mov	r6, r7
 8002660:	686b      	ldr	r3, [r5, #4]
 8002662:	0758      	lsls	r0, r3, #29
 8002664:	d506      	bpl.n	8002674 <HAL_RCCEx_PeriphCLKConfig+0x7ec>
 8002666:	2102      	movs	r1, #2
 8002668:	f105 0008 	add.w	r0, r5, #8
 800266c:	f7ff fb1c 	bl	8001ca8 <RCCEx_PLL2_Config>
 8002670:	4604      	mov	r4, r0
 8002672:	b900      	cbnz	r0, 8002676 <HAL_RCCEx_PeriphCLKConfig+0x7ee>
 8002674:	4634      	mov	r4, r6
 8002676:	686b      	ldr	r3, [r5, #4]
 8002678:	0719      	lsls	r1, r3, #28
 800267a:	d506      	bpl.n	800268a <HAL_RCCEx_PeriphCLKConfig+0x802>
 800267c:	2100      	movs	r1, #0
 800267e:	f105 0028 	add.w	r0, r5, #40	@ 0x28
 8002682:	f7ff fb89 	bl	8001d98 <RCCEx_PLL3_Config>
 8002686:	4606      	mov	r6, r0
 8002688:	b900      	cbnz	r0, 800268c <HAL_RCCEx_PeriphCLKConfig+0x804>
 800268a:	4626      	mov	r6, r4
 800268c:	686b      	ldr	r3, [r5, #4]
 800268e:	06da      	lsls	r2, r3, #27
 8002690:	d506      	bpl.n	80026a0 <HAL_RCCEx_PeriphCLKConfig+0x818>
 8002692:	2101      	movs	r1, #1
 8002694:	f105 0028 	add.w	r0, r5, #40	@ 0x28
 8002698:	f7ff fb7e 	bl	8001d98 <RCCEx_PLL3_Config>
 800269c:	4604      	mov	r4, r0
 800269e:	b900      	cbnz	r0, 80026a2 <HAL_RCCEx_PeriphCLKConfig+0x81a>
 80026a0:	4634      	mov	r4, r6
 80026a2:	686b      	ldr	r3, [r5, #4]
 80026a4:	069b      	lsls	r3, r3, #26
 80026a6:	f100 80ca 	bmi.w	800283e <HAL_RCCEx_PeriphCLKConfig+0x9b6>
 80026aa:	1e20      	subs	r0, r4, #0
 80026ac:	bf18      	it	ne
 80026ae:	2001      	movne	r0, #1
 80026b0:	e8bd 83f8 	ldmia.w	sp!, {r3, r4, r5, r6, r7, r8, r9, pc}
 80026b4:	2101      	movs	r1, #1
 80026b6:	f105 0028 	add.w	r0, r5, #40	@ 0x28
 80026ba:	f7ff fb6d 	bl	8001d98 <RCCEx_PLL3_Config>
 80026be:	e6ac      	b.n	800241a <HAL_RCCEx_PeriphCLKConfig+0x592>
 80026c0:	2601      	movs	r6, #1
 80026c2:	4634      	mov	r4, r6
 80026c4:	e6b5      	b.n	8002432 <HAL_RCCEx_PeriphCLKConfig+0x5aa>
 80026c6:	4626      	mov	r6, r4
 80026c8:	e6b3      	b.n	8002432 <HAL_RCCEx_PeriphCLKConfig+0x5aa>
 80026ca:	bf00      	nop
 80026cc:	58024400 	.word	0x58024400
 80026d0:	f023 5280 	bic.w	r2, r3, #268435456	@ 0x10000000
 80026d4:	f1b2 4f80 	cmp.w	r2, #1073741824	@ 0x40000000
 80026d8:	d003      	beq.n	80026e2 <HAL_RCCEx_PeriphCLKConfig+0x85a>
 80026da:	f1b3 5f40 	cmp.w	r3, #805306368	@ 0x30000000
 80026de:	f47f aeba 	bne.w	8002456 <HAL_RCCEx_PeriphCLKConfig+0x5ce>
 80026e2:	b9ac      	cbnz	r4, 8002710 <HAL_RCCEx_PeriphCLKConfig+0x888>
 80026e4:	4a5b      	ldr	r2, [pc, #364]	@ (8002854 <HAL_RCCEx_PeriphCLKConfig+0x9cc>)
 80026e6:	f8d5 1090 	ldr.w	r1, [r5, #144]	@ 0x90
 80026ea:	6d53      	ldr	r3, [r2, #84]	@ 0x54
 80026ec:	f023 43e0 	bic.w	r3, r3, #1879048192	@ 0x70000000
 80026f0:	430b      	orrs	r3, r1
 80026f2:	6553      	str	r3, [r2, #84]	@ 0x54
 80026f4:	e6b1      	b.n	800245a <HAL_RCCEx_PeriphCLKConfig+0x5d2>
 80026f6:	2100      	movs	r1, #0
 80026f8:	f105 0008 	add.w	r0, r5, #8
 80026fc:	f7ff fad4 	bl	8001ca8 <RCCEx_PLL2_Config>
 8002700:	4604      	mov	r4, r0
 8002702:	e7ee      	b.n	80026e2 <HAL_RCCEx_PeriphCLKConfig+0x85a>
 8002704:	2102      	movs	r1, #2
 8002706:	f105 0028 	add.w	r0, r5, #40	@ 0x28
 800270a:	f7ff fb45 	bl	8001d98 <RCCEx_PLL3_Config>
 800270e:	e7f7      	b.n	8002700 <HAL_RCCEx_PeriphCLKConfig+0x878>
 8002710:	4626      	mov	r6, r4
 8002712:	e6a2      	b.n	800245a <HAL_RCCEx_PeriphCLKConfig+0x5d2>
 8002714:	f423 6280 	bic.w	r2, r3, #1024	@ 0x400
 8002718:	f5b2 5f80 	cmp.w	r2, #4096	@ 0x1000
 800271c:	d003      	beq.n	8002726 <HAL_RCCEx_PeriphCLKConfig+0x89e>
 800271e:	f5b3 6f40 	cmp.w	r3, #3072	@ 0xc00
 8002722:	f47f aeac 	bne.w	800247e <HAL_RCCEx_PeriphCLKConfig+0x5f6>
 8002726:	b9ac      	cbnz	r4, 8002754 <HAL_RCCEx_PeriphCLKConfig+0x8cc>
 8002728:	4a4a      	ldr	r2, [pc, #296]	@ (8002854 <HAL_RCCEx_PeriphCLKConfig+0x9cc>)
 800272a:	f8d5 109c 	ldr.w	r1, [r5, #156]	@ 0x9c
 800272e:	6d93      	ldr	r3, [r2, #88]	@ 0x58
 8002730:	f423 53e0 	bic.w	r3, r3, #7168	@ 0x1c00
 8002734:	430b      	orrs	r3, r1
 8002736:	6593      	str	r3, [r2, #88]	@ 0x58
 8002738:	e6a3      	b.n	8002482 <HAL_RCCEx_PeriphCLKConfig+0x5fa>
 800273a:	2100      	movs	r1, #0
 800273c:	f105 0008 	add.w	r0, r5, #8
 8002740:	f7ff fab2 	bl	8001ca8 <RCCEx_PLL2_Config>
 8002744:	4604      	mov	r4, r0
 8002746:	e7ee      	b.n	8002726 <HAL_RCCEx_PeriphCLKConfig+0x89e>
 8002748:	2102      	movs	r1, #2
 800274a:	f105 0028 	add.w	r0, r5, #40	@ 0x28
 800274e:	f7ff fb23 	bl	8001d98 <RCCEx_PLL3_Config>
 8002752:	e7f7      	b.n	8002744 <HAL_RCCEx_PeriphCLKConfig+0x8bc>
 8002754:	4626      	mov	r6, r4
 8002756:	e694      	b.n	8002482 <HAL_RCCEx_PeriphCLKConfig+0x5fa>
 8002758:	f423 5200 	bic.w	r2, r3, #8192	@ 0x2000
 800275c:	f5b2 4f00 	cmp.w	r2, #32768	@ 0x8000
 8002760:	d003      	beq.n	800276a <HAL_RCCEx_PeriphCLKConfig+0x8e2>
 8002762:	f5b3 4fc0 	cmp.w	r3, #24576	@ 0x6000
 8002766:	f47f ae9e 	bne.w	80024a6 <HAL_RCCEx_PeriphCLKConfig+0x61e>
 800276a:	b9ac      	cbnz	r4, 8002798 <HAL_RCCEx_PeriphCLKConfig+0x910>
 800276c:	4a39      	ldr	r2, [pc, #228]	@ (8002854 <HAL_RCCEx_PeriphCLKConfig+0x9cc>)
 800276e:	f8d5 10a0 	ldr.w	r1, [r5, #160]	@ 0xa0
 8002772:	6d93      	ldr	r3, [r2, #88]	@ 0x58
 8002774:	f423 4360 	bic.w	r3, r3, #57344	@ 0xe000
 8002778:	430b      	orrs	r3, r1
 800277a:	6593      	str	r3, [r2, #88]	@ 0x58
 800277c:	e695      	b.n	80024aa <HAL_RCCEx_PeriphCLKConfig+0x622>
 800277e:	2100      	movs	r1, #0
 8002780:	f105 0008 	add.w	r0, r5, #8
 8002784:	f7ff fa90 	bl	8001ca8 <RCCEx_PLL2_Config>
 8002788:	4604      	mov	r4, r0
 800278a:	e7ee      	b.n	800276a <HAL_RCCEx_PeriphCLKConfig+0x8e2>
 800278c:	2102      	movs	r1, #2
 800278e:	f105 0028 	add.w	r0, r5, #40	@ 0x28
 8002792:	f7ff fb01 	bl	8001d98 <RCCEx_PLL3_Config>
 8002796:	e7f7      	b.n	8002788 <HAL_RCCEx_PeriphCLKConfig+0x900>
 8002798:	4626      	mov	r6, r4
 800279a:	e686      	b.n	80024aa <HAL_RCCEx_PeriphCLKConfig+0x622>
 800279c:	2102      	movs	r1, #2
 800279e:	f105 0028 	add.w	r0, r5, #40	@ 0x28
 80027a2:	f7ff faf9 	bl	8001d98 <RCCEx_PLL3_Config>
 80027a6:	e6c3      	b.n	8002530 <HAL_RCCEx_PeriphCLKConfig+0x6a8>
 80027a8:	2601      	movs	r6, #1
 80027aa:	4634      	mov	r4, r6
 80027ac:	e6cc      	b.n	8002548 <HAL_RCCEx_PeriphCLKConfig+0x6c0>
 80027ae:	4626      	mov	r6, r4
 80027b0:	e6ca      	b.n	8002548 <HAL_RCCEx_PeriphCLKConfig+0x6c0>
 80027b2:	4a28      	ldr	r2, [pc, #160]	@ (8002854 <HAL_RCCEx_PeriphCLKConfig+0x9cc>)
 80027b4:	6ad3      	ldr	r3, [r2, #44]	@ 0x2c
 80027b6:	f443 3300 	orr.w	r3, r3, #131072	@ 0x20000
 80027ba:	62d3      	str	r3, [r2, #44]	@ 0x2c
 80027bc:	b97c      	cbnz	r4, 80027de <HAL_RCCEx_PeriphCLKConfig+0x956>
 80027be:	4a25      	ldr	r2, [pc, #148]	@ (8002854 <HAL_RCCEx_PeriphCLKConfig+0x9cc>)
 80027c0:	f8d5 1088 	ldr.w	r1, [r5, #136]	@ 0x88
 80027c4:	6d53      	ldr	r3, [r2, #84]	@ 0x54
 80027c6:	f423 1340 	bic.w	r3, r3, #3145728	@ 0x300000
 80027ca:	430b      	orrs	r3, r1
 80027cc:	6553      	str	r3, [r2, #84]	@ 0x54
 80027ce:	e6ce      	b.n	800256e <HAL_RCCEx_PeriphCLKConfig+0x6e6>
 80027d0:	2101      	movs	r1, #1
 80027d2:	f105 0028 	add.w	r0, r5, #40	@ 0x28
 80027d6:	f7ff fadf 	bl	8001d98 <RCCEx_PLL3_Config>
 80027da:	4604      	mov	r4, r0
 80027dc:	e7ee      	b.n	80027bc <HAL_RCCEx_PeriphCLKConfig+0x934>
 80027de:	4626      	mov	r6, r4
 80027e0:	e6c5      	b.n	800256e <HAL_RCCEx_PeriphCLKConfig+0x6e6>
 80027e2:	4a1c      	ldr	r2, [pc, #112]	@ (8002854 <HAL_RCCEx_PeriphCLKConfig+0x9cc>)
 80027e4:	6ad3      	ldr	r3, [r2, #44]	@ 0x2c
 80027e6:	f443 3300 	orr.w	r3, r3, #131072	@ 0x20000
 80027ea:	62d3      	str	r3, [r2, #44]	@ 0x2c
 80027ec:	b974      	cbnz	r4, 800280c <HAL_RCCEx_PeriphCLKConfig+0x984>
 80027ee:	4a19      	ldr	r2, [pc, #100]	@ (8002854 <HAL_RCCEx_PeriphCLKConfig+0x9cc>)
 80027f0:	6d29      	ldr	r1, [r5, #80]	@ 0x50
 80027f2:	6cd3      	ldr	r3, [r2, #76]	@ 0x4c
 80027f4:	f423 3380 	bic.w	r3, r3, #65536	@ 0x10000
 80027f8:	430b      	orrs	r3, r1
 80027fa:	64d3      	str	r3, [r2, #76]	@ 0x4c
 80027fc:	e6c4      	b.n	8002588 <HAL_RCCEx_PeriphCLKConfig+0x700>
 80027fe:	2102      	movs	r1, #2
 8002800:	f105 0008 	add.w	r0, r5, #8
 8002804:	f7ff fa50 	bl	8001ca8 <RCCEx_PLL2_Config>
 8002808:	4604      	mov	r4, r0
 800280a:	e7ef      	b.n	80027ec <HAL_RCCEx_PeriphCLKConfig+0x964>
 800280c:	4626      	mov	r6, r4
 800280e:	e6bb      	b.n	8002588 <HAL_RCCEx_PeriphCLKConfig+0x700>
 8002810:	f420 7280 	bic.w	r2, r0, #256	@ 0x100
 8002814:	f5b2 7f00 	cmp.w	r2, #512	@ 0x200
 8002818:	f47f aed1 	bne.w	80025be <HAL_RCCEx_PeriphCLKConfig+0x736>
 800281c:	2c00      	cmp	r4, #0
 800281e:	f47f aecf 	bne.w	80025c0 <HAL_RCCEx_PeriphCLKConfig+0x738>
 8002822:	4c0c      	ldr	r4, [pc, #48]	@ (8002854 <HAL_RCCEx_PeriphCLKConfig+0x9cc>)
 8002824:	6d62      	ldr	r2, [r4, #84]	@ 0x54
 8002826:	f422 7240 	bic.w	r2, r2, #768	@ 0x300
 800282a:	4302      	orrs	r2, r0
 800282c:	6562      	str	r2, [r4, #84]	@ 0x54
 800282e:	4634      	mov	r4, r6
 8002830:	e6c6      	b.n	80025c0 <HAL_RCCEx_PeriphCLKConfig+0x738>
 8002832:	4f08      	ldr	r7, [pc, #32]	@ (8002854 <HAL_RCCEx_PeriphCLKConfig+0x9cc>)
 8002834:	6afa      	ldr	r2, [r7, #44]	@ 0x2c
 8002836:	f442 3200 	orr.w	r2, r2, #131072	@ 0x20000
 800283a:	62fa      	str	r2, [r7, #44]	@ 0x2c
 800283c:	e7ee      	b.n	800281c <HAL_RCCEx_PeriphCLKConfig+0x994>
 800283e:	2102      	movs	r1, #2
 8002840:	f105 0028 	add.w	r0, r5, #40	@ 0x28
 8002844:	f7ff faa8 	bl	8001d98 <RCCEx_PLL3_Config>
 8002848:	2800      	cmp	r0, #0
 800284a:	f43f af2e 	beq.w	80026aa <HAL_RCCEx_PeriphCLKConfig+0x822>
 800284e:	2001      	movs	r0, #1
 8002850:	e72e      	b.n	80026b0 <HAL_RCCEx_PeriphCLKConfig+0x828>
 8002852:	bf00      	nop
 8002854:	58024400 	.word	0x58024400

08002858 <HAL_RCCEx_GetD3PCLK1Freq>:
 8002858:	b508      	push	{r3, lr}
 800285a:	f7ff f9df 	bl	8001c1c <HAL_RCC_GetHCLKFreq>
 800285e:	4b05      	ldr	r3, [pc, #20]	@ (8002874 <HAL_RCCEx_GetD3PCLK1Freq+0x1c>)
 8002860:	4a05      	ldr	r2, [pc, #20]	@ (8002878 <HAL_RCCEx_GetD3PCLK1Freq+0x20>)
 8002862:	6a1b      	ldr	r3, [r3, #32]
 8002864:	f3c3 1302 	ubfx	r3, r3, #4, #3
 8002868:	5cd3      	ldrb	r3, [r2, r3]
 800286a:	f003 031f 	and.w	r3, r3, #31
 800286e:	40d8      	lsrs	r0, r3
 8002870:	bd08      	pop	{r3, pc}
 8002872:	bf00      	nop
 8002874:	58024400 	.word	0x58024400
 8002878:	08003fe7 	.word	0x08003fe7

0800287c <HAL_RCCEx_GetPLL2ClockFreq>:
 800287c:	494f      	ldr	r1, [pc, #316]	@ (80029bc <HAL_RCCEx_GetPLL2ClockFreq+0x140>)
 800287e:	b570      	push	{r4, r5, r6, lr}
 8002880:	6a8c      	ldr	r4, [r1, #40]	@ 0x28
 8002882:	6a8e      	ldr	r6, [r1, #40]	@ 0x28
 8002884:	6acd      	ldr	r5, [r1, #44]	@ 0x2c
 8002886:	f416 3f7c 	tst.w	r6, #258048	@ 0x3f000
 800288a:	f3c6 3305 	ubfx	r3, r6, #12, #6
 800288e:	6bca      	ldr	r2, [r1, #60]	@ 0x3c
 8002890:	f000 8090 	beq.w	80029b4 <HAL_RCCEx_GetPLL2ClockFreq+0x138>
 8002894:	ee07 3a90 	vmov	s15, r3
 8002898:	f3c2 03cc 	ubfx	r3, r2, #3, #13
 800289c:	f3c5 1200 	ubfx	r2, r5, #4, #1
 80028a0:	f004 0403 	and.w	r4, r4, #3
 80028a4:	eeb8 7ae7 	vcvt.f32.s32	s14, s15
 80028a8:	4353      	muls	r3, r2
 80028aa:	2c01      	cmp	r4, #1
 80028ac:	eeb7 6a00 	vmov.f32	s12, #112	@ 0x3f800000  1.0
 80028b0:	ee06 3a90 	vmov	s13, r3
 80028b4:	eefa 6ae9 	vcvt.f32.s32	s13, s13, #13
 80028b8:	d06e      	beq.n	8002998 <HAL_RCCEx_GetPLL2ClockFreq+0x11c>
 80028ba:	2c02      	cmp	r4, #2
 80028bc:	d05e      	beq.n	800297c <HAL_RCCEx_GetPLL2ClockFreq+0x100>
 80028be:	2c00      	cmp	r4, #0
 80028c0:	d16a      	bne.n	8002998 <HAL_RCCEx_GetPLL2ClockFreq+0x11c>
 80028c2:	680b      	ldr	r3, [r1, #0]
 80028c4:	069b      	lsls	r3, r3, #26
 80028c6:	d547      	bpl.n	8002958 <HAL_RCCEx_GetPLL2ClockFreq+0xdc>
 80028c8:	680a      	ldr	r2, [r1, #0]
 80028ca:	6b8b      	ldr	r3, [r1, #56]	@ 0x38
 80028cc:	f3c2 01c1 	ubfx	r1, r2, #3, #2
 80028d0:	4a3b      	ldr	r2, [pc, #236]	@ (80029c0 <HAL_RCCEx_GetPLL2ClockFreq+0x144>)
 80028d2:	f3c3 0308 	ubfx	r3, r3, #0, #9
 80028d6:	40ca      	lsrs	r2, r1
 80028d8:	ee07 2a90 	vmov	s15, r2
 80028dc:	eef8 5ae7 	vcvt.f32.s32	s11, s15
 80028e0:	eec5 7a87 	vdiv.f32	s15, s11, s14
 80028e4:	ee07 3a10 	vmov	s14, r3
 80028e8:	eeb8 7ac7 	vcvt.f32.s32	s14, s14
 80028ec:	ee37 7a26 	vadd.f32	s14, s14, s13
 80028f0:	ee37 7a06 	vadd.f32	s14, s14, s12
 80028f4:	ee67 7a87 	vmul.f32	s15, s15, s14
 80028f8:	4a30      	ldr	r2, [pc, #192]	@ (80029bc <HAL_RCCEx_GetPLL2ClockFreq+0x140>)
 80028fa:	6b93      	ldr	r3, [r2, #56]	@ 0x38
 80028fc:	f3c3 2346 	ubfx	r3, r3, #9, #7
 8002900:	ee07 3a10 	vmov	s14, r3
 8002904:	eeb8 7ac7 	vcvt.f32.s32	s14, s14
 8002908:	ee37 7a06 	vadd.f32	s14, s14, s12
 800290c:	eec7 6a87 	vdiv.f32	s13, s15, s14
 8002910:	eefc 6ae6 	vcvt.u32.f32	s13, s13
 8002914:	edc0 6a00 	vstr	s13, [r0]
 8002918:	6b93      	ldr	r3, [r2, #56]	@ 0x38
 800291a:	f3c3 4306 	ubfx	r3, r3, #16, #7
 800291e:	ee07 3a10 	vmov	s14, r3
 8002922:	eeb8 7ac7 	vcvt.f32.s32	s14, s14
 8002926:	ee37 7a06 	vadd.f32	s14, s14, s12
 800292a:	eec7 6a87 	vdiv.f32	s13, s15, s14
 800292e:	eefc 6ae6 	vcvt.u32.f32	s13, s13
 8002932:	edc0 6a01 	vstr	s13, [r0, #4]
 8002936:	6b93      	ldr	r3, [r2, #56]	@ 0x38
 8002938:	f3c3 6306 	ubfx	r3, r3, #24, #7
 800293c:	ee06 3a90 	vmov	s13, r3
 8002940:	eef8 6ae6 	vcvt.f32.s32	s13, s13
 8002944:	ee76 6a86 	vadd.f32	s13, s13, s12
 8002948:	ee87 7aa6 	vdiv.f32	s14, s15, s13
 800294c:	eefc 7ac7 	vcvt.u32.f32	s15, s14
 8002950:	ee17 3a90 	vmov	r3, s15
 8002954:	6083      	str	r3, [r0, #8]
 8002956:	bd70      	pop	{r4, r5, r6, pc}
 8002958:	6b8b      	ldr	r3, [r1, #56]	@ 0x38
 800295a:	eddf 5a1a 	vldr	s11, [pc, #104]	@ 80029c4 <HAL_RCCEx_GetPLL2ClockFreq+0x148>
 800295e:	f3c3 0308 	ubfx	r3, r3, #0, #9
 8002962:	ee07 3a90 	vmov	s15, r3
 8002966:	eef8 7ae7 	vcvt.f32.s32	s15, s15
 800296a:	ee77 7aa6 	vadd.f32	s15, s15, s13
 800296e:	ee77 7a86 	vadd.f32	s15, s15, s12
 8002972:	eec5 6a87 	vdiv.f32	s13, s11, s14
 8002976:	ee67 7aa6 	vmul.f32	s15, s15, s13
 800297a:	e7bd      	b.n	80028f8 <HAL_RCCEx_GetPLL2ClockFreq+0x7c>
 800297c:	6b8b      	ldr	r3, [r1, #56]	@ 0x38
 800297e:	eddf 5a12 	vldr	s11, [pc, #72]	@ 80029c8 <HAL_RCCEx_GetPLL2ClockFreq+0x14c>
 8002982:	f3c3 0308 	ubfx	r3, r3, #0, #9
 8002986:	ee07 3a90 	vmov	s15, r3
 800298a:	eef8 7ae7 	vcvt.f32.s32	s15, s15
 800298e:	ee77 7aa6 	vadd.f32	s15, s15, s13
 8002992:	ee77 7a86 	vadd.f32	s15, s15, s12
 8002996:	e7ec      	b.n	8002972 <HAL_RCCEx_GetPLL2ClockFreq+0xf6>
 8002998:	6b8b      	ldr	r3, [r1, #56]	@ 0x38
 800299a:	eddf 5a0c 	vldr	s11, [pc, #48]	@ 80029cc <HAL_RCCEx_GetPLL2ClockFreq+0x150>
 800299e:	f3c3 0308 	ubfx	r3, r3, #0, #9
 80029a2:	ee07 3a90 	vmov	s15, r3
 80029a6:	eef8 7ae7 	vcvt.f32.s32	s15, s15
 80029aa:	ee77 7aa6 	vadd.f32	s15, s15, s13
 80029ae:	ee77 7a86 	vadd.f32	s15, s15, s12
 80029b2:	e7de      	b.n	8002972 <HAL_RCCEx_GetPLL2ClockFreq+0xf6>
 80029b4:	e9c0 3300 	strd	r3, r3, [r0]
 80029b8:	e7cc      	b.n	8002954 <HAL_RCCEx_GetPLL2ClockFreq+0xd8>
 80029ba:	bf00      	nop
 80029bc:	58024400 	.word	0x58024400
 80029c0:	03d09000 	.word	0x03d09000
 80029c4:	4c742400 	.word	0x4c742400
 80029c8:	4bbebc20 	.word	0x4bbebc20
 80029cc:	4a742400 	.word	0x4a742400

080029d0 <HAL_RCCEx_GetPLL3ClockFreq>:
 80029d0:	494f      	ldr	r1, [pc, #316]	@ (8002b10 <HAL_RCCEx_GetPLL3ClockFreq+0x140>)
 80029d2:	b570      	push	{r4, r5, r6, lr}
 80029d4:	6a8c      	ldr	r4, [r1, #40]	@ 0x28
 80029d6:	6a8e      	ldr	r6, [r1, #40]	@ 0x28
 80029d8:	6acd      	ldr	r5, [r1, #44]	@ 0x2c
 80029da:	f016 7f7c 	tst.w	r6, #66060288	@ 0x3f00000
 80029de:	f3c6 5305 	ubfx	r3, r6, #20, #6
 80029e2:	6c4a      	ldr	r2, [r1, #68]	@ 0x44
 80029e4:	f000 8090 	beq.w	8002b08 <HAL_RCCEx_GetPLL3ClockFreq+0x138>
 80029e8:	ee07 3a90 	vmov	s15, r3
 80029ec:	f3c2 03cc 	ubfx	r3, r2, #3, #13
 80029f0:	f3c5 2200 	ubfx	r2, r5, #8, #1
 80029f4:	f004 0403 	and.w	r4, r4, #3
 80029f8:	eeb8 7ae7 	vcvt.f32.s32	s14, s15
 80029fc:	4353      	muls	r3, r2
 80029fe:	2c01      	cmp	r4, #1
 8002a00:	eeb7 6a00 	vmov.f32	s12, #112	@ 0x3f800000  1.0
 8002a04:	ee06 3a90 	vmov	s13, r3
 8002a08:	eefa 6ae9 	vcvt.f32.s32	s13, s13, #13
 8002a0c:	d06e      	beq.n	8002aec <HAL_RCCEx_GetPLL3ClockFreq+0x11c>
 8002a0e:	2c02      	cmp	r4, #2
 8002a10:	d05e      	beq.n	8002ad0 <HAL_RCCEx_GetPLL3ClockFreq+0x100>
 8002a12:	2c00      	cmp	r4, #0
 8002a14:	d16a      	bne.n	8002aec <HAL_RCCEx_GetPLL3ClockFreq+0x11c>
 8002a16:	680b      	ldr	r3, [r1, #0]
 8002a18:	069b      	lsls	r3, r3, #26
 8002a1a:	d547      	bpl.n	8002aac <HAL_RCCEx_GetPLL3ClockFreq+0xdc>
 8002a1c:	680a      	ldr	r2, [r1, #0]
 8002a1e:	6c0b      	ldr	r3, [r1, #64]	@ 0x40
 8002a20:	f3c2 01c1 	ubfx	r1, r2, #3, #2
 8002a24:	4a3b      	ldr	r2, [pc, #236]	@ (8002b14 <HAL_RCCEx_GetPLL3ClockFreq+0x144>)
 8002a26:	f3c3 0308 	ubfx	r3, r3, #0, #9
 8002a2a:	40ca      	lsrs	r2, r1
 8002a2c:	ee07 2a90 	vmov	s15, r2
 8002a30:	eef8 5ae7 	vcvt.f32.s32	s11, s15
 8002a34:	eec5 7a87 	vdiv.f32	s15, s11, s14
 8002a38:	ee07 3a10 	vmov	s14, r3
 8002a3c:	eeb8 7ac7 	vcvt.f32.s32	s14, s14
 8002a40:	ee37 7a26 	vadd.f32	s14, s14, s13
 8002a44:	ee37 7a06 	vadd.f32	s14, s14, s12
 8002a48:	ee67 7a87 	vmul.f32	s15, s15, s14
 8002a4c:	4a30      	ldr	r2, [pc, #192]	@ (8002b10 <HAL_RCCEx_GetPLL3ClockFreq+0x140>)
 8002a4e:	6c13      	ldr	r3, [r2, #64]	@ 0x40
 8002a50:	f3c3 2346 	ubfx	r3, r3, #9, #7
 8002a54:	ee07 3a10 	vmov	s14, r3
 8002a58:	eeb8 7ac7 	vcvt.f32.s32	s14, s14
 8002a5c:	ee37 7a06 	vadd.f32	s14, s14, s12
 8002a60:	eec7 6a87 	vdiv.f32	s13, s15, s14
 8002a64:	eefc 6ae6 	vcvt.u32.f32	s13, s13
 8002a68:	edc0 6a00 	vstr	s13, [r0]
 8002a6c:	6c13      	ldr	r3, [r2, #64]	@ 0x40
 8002a6e:	f3c3 4306 	ubfx	r3, r3, #16, #7
 8002a72:	ee07 3a10 	vmov	s14, r3
 8002a76:	eeb8 7ac7 	vcvt.f32.s32	s14, s14
 8002a7a:	ee37 7a06 	vadd.f32	s14, s14, s12
 8002a7e:	eec7 6a87 	vdiv.f32	s13, s15, s14
 8002a82:	eefc 6ae6 	vcvt.u32.f32	s13, s13
 8002a86:	edc0 6a01 	vstr	s13, [r0, #4]
 8002a8a:	6c13      	ldr	r3, [r2, #64]	@ 0x40
 8002a8c:	f3c3 6306 	ubfx	r3, r3, #24, #7
 8002a90:	ee06 3a90 	vmov	s13, r3
 8002a94:	eef8 6ae6 	vcvt.f32.s32	s13, s13
 8002a98:	ee76 6a86 	vadd.f32	s13, s13, s12
 8002a9c:	ee87 7aa6 	vdiv.f32	s14, s15, s13
 8002aa0:	eefc 7ac7 	vcvt.u32.f32	s15, s14
 8002aa4:	ee17 3a90 	vmov	r3, s15
 8002aa8:	6083      	str	r3, [r0, #8]
 8002aaa:	bd70      	pop	{r4, r5, r6, pc}
 8002aac:	6c0b      	ldr	r3, [r1, #64]	@ 0x40
 8002aae:	eddf 5a1a 	vldr	s11, [pc, #104]	@ 8002b18 <HAL_RCCEx_GetPLL3ClockFreq+0x148>
 8002ab2:	f3c3 0308 	ubfx	r3, r3, #0, #9
 8002ab6:	ee07 3a90 	vmov	s15, r3
 8002aba:	eef8 7ae7 	vcvt.f32.s32	s15, s15
 8002abe:	ee77 7aa6 	vadd.f32	s15, s15, s13
 8002ac2:	ee77 7a86 	vadd.f32	s15, s15, s12
 8002ac6:	eec5 6a87 	vdiv.f32	s13, s11, s14
 8002aca:	ee67 7aa6 	vmul.f32	s15, s15, s13
 8002ace:	e7bd      	b.n	8002a4c <HAL_RCCEx_GetPLL3ClockFreq+0x7c>
 8002ad0:	6c0b      	ldr	r3, [r1, #64]	@ 0x40
 8002ad2:	eddf 5a12 	vldr	s11, [pc, #72]	@ 8002b1c <HAL_RCCEx_GetPLL3ClockFreq+0x14c>
 8002ad6:	f3c3 0308 	ubfx	r3, r3, #0, #9
 8002ada:	ee07 3a90 	vmov	s15, r3
 8002ade:	eef8 7ae7 	vcvt.f32.s32	s15, s15
 8002ae2:	ee77 7aa6 	vadd.f32	s15, s15, s13
 8002ae6:	ee77 7a86 	vadd.f32	s15, s15, s12
 8002aea:	e7ec      	b.n	8002ac6 <HAL_RCCEx_GetPLL3ClockFreq+0xf6>
 8002aec:	6c0b      	ldr	r3, [r1, #64]	@ 0x40
 8002aee:	eddf 5a0c 	vldr	s11, [pc, #48]	@ 8002b20 <HAL_RCCEx_GetPLL3ClockFreq+0x150>
 8002af2:	f3c3 0308 	ubfx	r3, r3, #0, #9
 8002af6:	ee07 3a90 	vmov	s15, r3
 8002afa:	eef8 7ae7 	vcvt.f32.s32	s15, s15
 8002afe:	ee77 7aa6 	vadd.f32	s15, s15, s13
 8002b02:	ee77 7a86 	vadd.f32	s15, s15, s12
 8002b06:	e7de      	b.n	8002ac6 <HAL_RCCEx_GetPLL3ClockFreq+0xf6>
 8002b08:	e9c0 3300 	strd	r3, r3, [r0]
 8002b0c:	e7cc      	b.n	8002aa8 <HAL_RCCEx_GetPLL3ClockFreq+0xd8>
 8002b0e:	bf00      	nop
 8002b10:	58024400 	.word	0x58024400
 8002b14:	03d09000 	.word	0x03d09000
 8002b18:	4c742400 	.word	0x4c742400
 8002b1c:	4bbebc20 	.word	0x4bbebc20
 8002b20:	4a742400 	.word	0x4a742400

08002b24 <UART_EndRxTransfer>:
 8002b24:	b510      	push	{r4, lr}
 8002b26:	6802      	ldr	r2, [r0, #0]
 8002b28:	e852 3f00 	ldrex	r3, [r2]
 8002b2c:	f423 7390 	bic.w	r3, r3, #288	@ 0x120
 8002b30:	e842 3100 	strex	r1, r3, [r2]
 8002b34:	6802      	ldr	r2, [r0, #0]
 8002b36:	2900      	cmp	r1, #0
 8002b38:	d1f5      	bne.n	8002b26 <UART_EndRxTransfer+0x2>
 8002b3a:	4c0f      	ldr	r4, [pc, #60]	@ (8002b78 <UART_EndRxTransfer+0x54>)
 8002b3c:	f102 0308 	add.w	r3, r2, #8
 8002b40:	e853 3f00 	ldrex	r3, [r3]
 8002b44:	4023      	ands	r3, r4
 8002b46:	f102 0c08 	add.w	ip, r2, #8
 8002b4a:	e84c 3100 	strex	r1, r3, [ip]
 8002b4e:	2900      	cmp	r1, #0
 8002b50:	d1f4      	bne.n	8002b3c <UART_EndRxTransfer+0x18>
 8002b52:	6ec3      	ldr	r3, [r0, #108]	@ 0x6c
 8002b54:	2b01      	cmp	r3, #1
 8002b56:	d107      	bne.n	8002b68 <UART_EndRxTransfer+0x44>
 8002b58:	e852 3f00 	ldrex	r3, [r2]
 8002b5c:	f023 0310 	bic.w	r3, r3, #16
 8002b60:	e842 3100 	strex	r1, r3, [r2]
 8002b64:	2900      	cmp	r1, #0
 8002b66:	d1f7      	bne.n	8002b58 <UART_EndRxTransfer+0x34>
 8002b68:	2320      	movs	r3, #32
 8002b6a:	f8c0 308c 	str.w	r3, [r0, #140]	@ 0x8c
 8002b6e:	2300      	movs	r3, #0
 8002b70:	66c3      	str	r3, [r0, #108]	@ 0x6c
 8002b72:	6743      	str	r3, [r0, #116]	@ 0x74
 8002b74:	bd10      	pop	{r4, pc}
 8002b76:	bf00      	nop
 8002b78:	effffffe 	.word	0xeffffffe

08002b7c <UART_SetConfig>:
 8002b7c:	b530      	push	{r4, r5, lr}
 8002b7e:	4604      	mov	r4, r0
 8002b80:	6803      	ldr	r3, [r0, #0]
 8002b82:	69c0      	ldr	r0, [r0, #28]
 8002b84:	b087      	sub	sp, #28
 8002b86:	6921      	ldr	r1, [r4, #16]
 8002b88:	68a2      	ldr	r2, [r4, #8]
 8002b8a:	681d      	ldr	r5, [r3, #0]
 8002b8c:	430a      	orrs	r2, r1
 8002b8e:	6961      	ldr	r1, [r4, #20]
 8002b90:	430a      	orrs	r2, r1
 8002b92:	499c      	ldr	r1, [pc, #624]	@ (8002e04 <UART_SetConfig+0x288>)
 8002b94:	4302      	orrs	r2, r0
 8002b96:	4029      	ands	r1, r5
 8002b98:	430a      	orrs	r2, r1
 8002b9a:	68e1      	ldr	r1, [r4, #12]
 8002b9c:	601a      	str	r2, [r3, #0]
 8002b9e:	685a      	ldr	r2, [r3, #4]
 8002ba0:	f422 5240 	bic.w	r2, r2, #12288	@ 0x3000
 8002ba4:	430a      	orrs	r2, r1
 8002ba6:	69a1      	ldr	r1, [r4, #24]
 8002ba8:	605a      	str	r2, [r3, #4]
 8002baa:	4a97      	ldr	r2, [pc, #604]	@ (8002e08 <UART_SetConfig+0x28c>)
 8002bac:	4293      	cmp	r3, r2
 8002bae:	bf1c      	itt	ne
 8002bb0:	6a22      	ldrne	r2, [r4, #32]
 8002bb2:	4311      	orrne	r1, r2
 8002bb4:	689a      	ldr	r2, [r3, #8]
 8002bb6:	f022 426e 	bic.w	r2, r2, #3992977408	@ 0xee000000
 8002bba:	f422 6230 	bic.w	r2, r2, #2816	@ 0xb00
 8002bbe:	430a      	orrs	r2, r1
 8002bc0:	6a61      	ldr	r1, [r4, #36]	@ 0x24
 8002bc2:	609a      	str	r2, [r3, #8]
 8002bc4:	6ada      	ldr	r2, [r3, #44]	@ 0x2c
 8002bc6:	f022 020f 	bic.w	r2, r2, #15
 8002bca:	430a      	orrs	r2, r1
 8002bcc:	62da      	str	r2, [r3, #44]	@ 0x2c
 8002bce:	4a8f      	ldr	r2, [pc, #572]	@ (8002e0c <UART_SetConfig+0x290>)
 8002bd0:	4293      	cmp	r3, r2
 8002bd2:	d128      	bne.n	8002c26 <UART_SetConfig+0xaa>
 8002bd4:	4b8e      	ldr	r3, [pc, #568]	@ (8002e10 <UART_SetConfig+0x294>)
 8002bd6:	6d5b      	ldr	r3, [r3, #84]	@ 0x54
 8002bd8:	f003 0338 	and.w	r3, r3, #56	@ 0x38
 8002bdc:	2b18      	cmp	r3, #24
 8002bde:	f000 812f 	beq.w	8002e40 <UART_SetConfig+0x2c4>
 8002be2:	d814      	bhi.n	8002c0e <UART_SetConfig+0x92>
 8002be4:	2b08      	cmp	r3, #8
 8002be6:	f000 8154 	beq.w	8002e92 <UART_SetConfig+0x316>
 8002bea:	2b10      	cmp	r3, #16
 8002bec:	f000 8102 	beq.w	8002df4 <UART_SetConfig+0x278>
 8002bf0:	2b00      	cmp	r3, #0
 8002bf2:	f000 80f9 	beq.w	8002de8 <UART_SetConfig+0x26c>
 8002bf6:	2380      	movs	r3, #128	@ 0x80
 8002bf8:	f5b0 4f00 	cmp.w	r0, #32768	@ 0x8000
 8002bfc:	f040 80b4 	bne.w	8002d68 <UART_SetConfig+0x1ec>
 8002c00:	2b08      	cmp	r3, #8
 8002c02:	d846      	bhi.n	8002c92 <UART_SetConfig+0x116>
 8002c04:	4668      	mov	r0, sp
 8002c06:	f7ff fe39 	bl	800287c <HAL_RCCEx_GetPLL2ClockFreq>
 8002c0a:	9801      	ldr	r0, [sp, #4]
 8002c0c:	e0e9      	b.n	8002de2 <UART_SetConfig+0x266>
 8002c0e:	2b20      	cmp	r3, #32
 8002c10:	f000 80dd 	beq.w	8002dce <UART_SetConfig+0x252>
 8002c14:	2b28      	cmp	r3, #40	@ 0x28
 8002c16:	d1ee      	bne.n	8002bf6 <UART_SetConfig+0x7a>
 8002c18:	f5b0 4f00 	cmp.w	r0, #32768	@ 0x8000
 8002c1c:	f000 811d 	beq.w	8002e5a <UART_SetConfig+0x2de>
 8002c20:	f44f 4000 	mov.w	r0, #32768	@ 0x8000
 8002c24:	e0be      	b.n	8002da4 <UART_SetConfig+0x228>
 8002c26:	4a7b      	ldr	r2, [pc, #492]	@ (8002e14 <UART_SetConfig+0x298>)
 8002c28:	4293      	cmp	r3, r2
 8002c2a:	d115      	bne.n	8002c58 <UART_SetConfig+0xdc>
 8002c2c:	4b78      	ldr	r3, [pc, #480]	@ (8002e10 <UART_SetConfig+0x294>)
 8002c2e:	6d5b      	ldr	r3, [r3, #84]	@ 0x54
 8002c30:	f003 0307 	and.w	r3, r3, #7
 8002c34:	2b05      	cmp	r3, #5
 8002c36:	d82c      	bhi.n	8002c92 <UART_SetConfig+0x116>
 8002c38:	a201      	add	r2, pc, #4	@ (adr r2, 8002c40 <UART_SetConfig+0xc4>)
 8002c3a:	f852 f023 	ldr.w	pc, [r2, r3, lsl #2]
 8002c3e:	bf00      	nop
 8002c40:	08002dd9 	.word	0x08002dd9
 8002c44:	08002d65 	.word	0x08002d65
 8002c48:	08002df5 	.word	0x08002df5
 8002c4c:	08002e41 	.word	0x08002e41
 8002c50:	08002dcf 	.word	0x08002dcf
 8002c54:	08002c19 	.word	0x08002c19
 8002c58:	4a6f      	ldr	r2, [pc, #444]	@ (8002e18 <UART_SetConfig+0x29c>)
 8002c5a:	4293      	cmp	r3, r2
 8002c5c:	d0e6      	beq.n	8002c2c <UART_SetConfig+0xb0>
 8002c5e:	4a6f      	ldr	r2, [pc, #444]	@ (8002e1c <UART_SetConfig+0x2a0>)
 8002c60:	4293      	cmp	r3, r2
 8002c62:	d0e3      	beq.n	8002c2c <UART_SetConfig+0xb0>
 8002c64:	4a6e      	ldr	r2, [pc, #440]	@ (8002e20 <UART_SetConfig+0x2a4>)
 8002c66:	4293      	cmp	r3, r2
 8002c68:	d0e0      	beq.n	8002c2c <UART_SetConfig+0xb0>
 8002c6a:	4a6e      	ldr	r2, [pc, #440]	@ (8002e24 <UART_SetConfig+0x2a8>)
 8002c6c:	4293      	cmp	r3, r2
 8002c6e:	d118      	bne.n	8002ca2 <UART_SetConfig+0x126>
 8002c70:	4b67      	ldr	r3, [pc, #412]	@ (8002e10 <UART_SetConfig+0x294>)
 8002c72:	6d5b      	ldr	r3, [r3, #84]	@ 0x54
 8002c74:	f003 0338 	and.w	r3, r3, #56	@ 0x38
 8002c78:	2b18      	cmp	r3, #24
 8002c7a:	f000 80e1 	beq.w	8002e40 <UART_SetConfig+0x2c4>
 8002c7e:	d80a      	bhi.n	8002c96 <UART_SetConfig+0x11a>
 8002c80:	2b08      	cmp	r3, #8
 8002c82:	f000 8106 	beq.w	8002e92 <UART_SetConfig+0x316>
 8002c86:	2b10      	cmp	r3, #16
 8002c88:	f000 80b4 	beq.w	8002df4 <UART_SetConfig+0x278>
 8002c8c:	2b00      	cmp	r3, #0
 8002c8e:	f000 80ab 	beq.w	8002de8 <UART_SetConfig+0x26c>
 8002c92:	2001      	movs	r0, #1
 8002c94:	e049      	b.n	8002d2a <UART_SetConfig+0x1ae>
 8002c96:	2b20      	cmp	r3, #32
 8002c98:	f000 8099 	beq.w	8002dce <UART_SetConfig+0x252>
 8002c9c:	2b28      	cmp	r3, #40	@ 0x28
 8002c9e:	d0bb      	beq.n	8002c18 <UART_SetConfig+0x9c>
 8002ca0:	e7f7      	b.n	8002c92 <UART_SetConfig+0x116>
 8002ca2:	4a61      	ldr	r2, [pc, #388]	@ (8002e28 <UART_SetConfig+0x2ac>)
 8002ca4:	4293      	cmp	r3, r2
 8002ca6:	d0c1      	beq.n	8002c2c <UART_SetConfig+0xb0>
 8002ca8:	4a60      	ldr	r2, [pc, #384]	@ (8002e2c <UART_SetConfig+0x2b0>)
 8002caa:	4293      	cmp	r3, r2
 8002cac:	d0be      	beq.n	8002c2c <UART_SetConfig+0xb0>
 8002cae:	4a56      	ldr	r2, [pc, #344]	@ (8002e08 <UART_SetConfig+0x28c>)
 8002cb0:	4293      	cmp	r3, r2
 8002cb2:	d1ee      	bne.n	8002c92 <UART_SetConfig+0x116>
 8002cb4:	f502 320e 	add.w	r2, r2, #145408	@ 0x23800
 8002cb8:	6d93      	ldr	r3, [r2, #88]	@ 0x58
 8002cba:	f003 0307 	and.w	r3, r3, #7
 8002cbe:	2b05      	cmp	r3, #5
 8002cc0:	d8e7      	bhi.n	8002c92 <UART_SetConfig+0x116>
 8002cc2:	e8df f003 	tbb	[pc, r3]
 8002cc6:	2b49      	.short	0x2b49
 8002cc8:	4c033f3a 	.word	0x4c033f3a
 8002ccc:	4858      	ldr	r0, [pc, #352]	@ (8002e30 <UART_SetConfig+0x2b4>)
 8002cce:	4b59      	ldr	r3, [pc, #356]	@ (8002e34 <UART_SetConfig+0x2b8>)
 8002cd0:	6a62      	ldr	r2, [r4, #36]	@ 0x24
 8002cd2:	6865      	ldr	r5, [r4, #4]
 8002cd4:	f833 2012 	ldrh.w	r2, [r3, r2, lsl #1]
 8002cd8:	eb05 0145 	add.w	r1, r5, r5, lsl #1
 8002cdc:	fbb0 f3f2 	udiv	r3, r0, r2
 8002ce0:	4299      	cmp	r1, r3
 8002ce2:	d8d6      	bhi.n	8002c92 <UART_SetConfig+0x116>
 8002ce4:	ebb3 3f05 	cmp.w	r3, r5, lsl #12
 8002ce8:	d8d3      	bhi.n	8002c92 <UART_SetConfig+0x116>
 8002cea:	2300      	movs	r3, #0
 8002cec:	4619      	mov	r1, r3
 8002cee:	f7fd fb4f 	bl	8000390 <__aeabi_uldivmod>
 8002cf2:	462a      	mov	r2, r5
 8002cf4:	0209      	lsls	r1, r1, #8
 8002cf6:	086b      	lsrs	r3, r5, #1
 8002cf8:	ea41 6110 	orr.w	r1, r1, r0, lsr #24
 8002cfc:	0200      	lsls	r0, r0, #8
 8002cfe:	18c0      	adds	r0, r0, r3
 8002d00:	f04f 0300 	mov.w	r3, #0
 8002d04:	f141 0100 	adc.w	r1, r1, #0
 8002d08:	f7fd fb42 	bl	8000390 <__aeabi_uldivmod>
 8002d0c:	4b4a      	ldr	r3, [pc, #296]	@ (8002e38 <UART_SetConfig+0x2bc>)
 8002d0e:	f5a0 7240 	sub.w	r2, r0, #768	@ 0x300
 8002d12:	429a      	cmp	r2, r3
 8002d14:	d8bd      	bhi.n	8002c92 <UART_SetConfig+0x116>
 8002d16:	6823      	ldr	r3, [r4, #0]
 8002d18:	60d8      	str	r0, [r3, #12]
 8002d1a:	e005      	b.n	8002d28 <UART_SetConfig+0x1ac>
 8002d1c:	4668      	mov	r0, sp
 8002d1e:	f7ff fdad 	bl	800287c <HAL_RCCEx_GetPLL2ClockFreq>
 8002d22:	9801      	ldr	r0, [sp, #4]
 8002d24:	2800      	cmp	r0, #0
 8002d26:	d1d2      	bne.n	8002cce <UART_SetConfig+0x152>
 8002d28:	2000      	movs	r0, #0
 8002d2a:	f04f 1301 	mov.w	r3, #65537	@ 0x10001
 8002d2e:	66a3      	str	r3, [r4, #104]	@ 0x68
 8002d30:	2300      	movs	r3, #0
 8002d32:	e9c4 331d 	strd	r3, r3, [r4, #116]	@ 0x74
 8002d36:	b007      	add	sp, #28
 8002d38:	bd30      	pop	{r4, r5, pc}
 8002d3a:	a803      	add	r0, sp, #12
 8002d3c:	f7ff fe48 	bl	80029d0 <HAL_RCCEx_GetPLL3ClockFreq>
 8002d40:	9804      	ldr	r0, [sp, #16]
 8002d42:	e7ef      	b.n	8002d24 <UART_SetConfig+0x1a8>
 8002d44:	6813      	ldr	r3, [r2, #0]
 8002d46:	483d      	ldr	r0, [pc, #244]	@ (8002e3c <UART_SetConfig+0x2c0>)
 8002d48:	f013 0f20 	tst.w	r3, #32
 8002d4c:	d0bf      	beq.n	8002cce <UART_SetConfig+0x152>
 8002d4e:	6813      	ldr	r3, [r2, #0]
 8002d50:	f3c3 03c1 	ubfx	r3, r3, #3, #2
 8002d54:	40d8      	lsrs	r0, r3
 8002d56:	e7ba      	b.n	8002cce <UART_SetConfig+0x152>
 8002d58:	f7ff fd7e 	bl	8002858 <HAL_RCCEx_GetD3PCLK1Freq>
 8002d5c:	e7e2      	b.n	8002d24 <UART_SetConfig+0x1a8>
 8002d5e:	f44f 4000 	mov.w	r0, #32768	@ 0x8000
 8002d62:	e7b4      	b.n	8002cce <UART_SetConfig+0x152>
 8002d64:	2304      	movs	r3, #4
 8002d66:	e747      	b.n	8002bf8 <UART_SetConfig+0x7c>
 8002d68:	2b08      	cmp	r3, #8
 8002d6a:	d892      	bhi.n	8002c92 <UART_SetConfig+0x116>
 8002d6c:	4668      	mov	r0, sp
 8002d6e:	f7ff fd85 	bl	800287c <HAL_RCCEx_GetPLL2ClockFreq>
 8002d72:	9801      	ldr	r0, [sp, #4]
 8002d74:	e001      	b.n	8002d7a <UART_SetConfig+0x1fe>
 8002d76:	f7fe ff73 	bl	8001c60 <HAL_RCC_GetPCLK1Freq>
 8002d7a:	2800      	cmp	r0, #0
 8002d7c:	d0d4      	beq.n	8002d28 <UART_SetConfig+0x1ac>
 8002d7e:	e011      	b.n	8002da4 <UART_SetConfig+0x228>
 8002d80:	f7fe ff80 	bl	8001c84 <HAL_RCC_GetPCLK2Freq>
 8002d84:	e7f9      	b.n	8002d7a <UART_SetConfig+0x1fe>
 8002d86:	a803      	add	r0, sp, #12
 8002d88:	f7ff fe22 	bl	80029d0 <HAL_RCCEx_GetPLL3ClockFreq>
 8002d8c:	9804      	ldr	r0, [sp, #16]
 8002d8e:	e7f4      	b.n	8002d7a <UART_SetConfig+0x1fe>
 8002d90:	4b1f      	ldr	r3, [pc, #124]	@ (8002e10 <UART_SetConfig+0x294>)
 8002d92:	482a      	ldr	r0, [pc, #168]	@ (8002e3c <UART_SetConfig+0x2c0>)
 8002d94:	681a      	ldr	r2, [r3, #0]
 8002d96:	f012 0f20 	tst.w	r2, #32
 8002d9a:	d003      	beq.n	8002da4 <UART_SetConfig+0x228>
 8002d9c:	681b      	ldr	r3, [r3, #0]
 8002d9e:	f3c3 03c1 	ubfx	r3, r3, #3, #2
 8002da2:	40d8      	lsrs	r0, r3
 8002da4:	6a61      	ldr	r1, [r4, #36]	@ 0x24
 8002da6:	4b23      	ldr	r3, [pc, #140]	@ (8002e34 <UART_SetConfig+0x2b8>)
 8002da8:	6862      	ldr	r2, [r4, #4]
 8002daa:	f833 3011 	ldrh.w	r3, [r3, r1, lsl #1]
 8002dae:	fbb0 f3f3 	udiv	r3, r0, r3
 8002db2:	eb03 0352 	add.w	r3, r3, r2, lsr #1
 8002db6:	fbb3 f3f2 	udiv	r3, r3, r2
 8002dba:	f64f 72ef 	movw	r2, #65519	@ 0xffef
 8002dbe:	f1a3 0110 	sub.w	r1, r3, #16
 8002dc2:	4291      	cmp	r1, r2
 8002dc4:	f63f af65 	bhi.w	8002c92 <UART_SetConfig+0x116>
 8002dc8:	6822      	ldr	r2, [r4, #0]
 8002dca:	60d3      	str	r3, [r2, #12]
 8002dcc:	e7ac      	b.n	8002d28 <UART_SetConfig+0x1ac>
 8002dce:	f5b0 4f00 	cmp.w	r0, #32768	@ 0x8000
 8002dd2:	4817      	ldr	r0, [pc, #92]	@ (8002e30 <UART_SetConfig+0x2b4>)
 8002dd4:	d1e6      	bne.n	8002da4 <UART_SetConfig+0x228>
 8002dd6:	e040      	b.n	8002e5a <UART_SetConfig+0x2de>
 8002dd8:	f5b0 4f00 	cmp.w	r0, #32768	@ 0x8000
 8002ddc:	d1cb      	bne.n	8002d76 <UART_SetConfig+0x1fa>
 8002dde:	f7fe ff3f 	bl	8001c60 <HAL_RCC_GetPCLK1Freq>
 8002de2:	2800      	cmp	r0, #0
 8002de4:	d0a0      	beq.n	8002d28 <UART_SetConfig+0x1ac>
 8002de6:	e038      	b.n	8002e5a <UART_SetConfig+0x2de>
 8002de8:	f5b0 4f00 	cmp.w	r0, #32768	@ 0x8000
 8002dec:	d1c8      	bne.n	8002d80 <UART_SetConfig+0x204>
 8002dee:	f7fe ff49 	bl	8001c84 <HAL_RCC_GetPCLK2Freq>
 8002df2:	e7f6      	b.n	8002de2 <UART_SetConfig+0x266>
 8002df4:	f5b0 4f00 	cmp.w	r0, #32768	@ 0x8000
 8002df8:	d1c5      	bne.n	8002d86 <UART_SetConfig+0x20a>
 8002dfa:	a803      	add	r0, sp, #12
 8002dfc:	f7ff fde8 	bl	80029d0 <HAL_RCCEx_GetPLL3ClockFreq>
 8002e00:	9804      	ldr	r0, [sp, #16]
 8002e02:	e7ee      	b.n	8002de2 <UART_SetConfig+0x266>
 8002e04:	cfff69f3 	.word	0xcfff69f3
 8002e08:	58000c00 	.word	0x58000c00
 8002e0c:	40011000 	.word	0x40011000
 8002e10:	58024400 	.word	0x58024400
 8002e14:	40004400 	.word	0x40004400
 8002e18:	40004800 	.word	0x40004800
 8002e1c:	40004c00 	.word	0x40004c00
 8002e20:	40005000 	.word	0x40005000
 8002e24:	40011400 	.word	0x40011400
 8002e28:	40007800 	.word	0x40007800
 8002e2c:	40007c00 	.word	0x40007c00
 8002e30:	003d0900 	.word	0x003d0900
 8002e34:	08003ff8 	.word	0x08003ff8
 8002e38:	000ffcff 	.word	0x000ffcff
 8002e3c:	03d09000 	.word	0x03d09000
 8002e40:	f5b0 4f00 	cmp.w	r0, #32768	@ 0x8000
 8002e44:	d1a4      	bne.n	8002d90 <UART_SetConfig+0x214>
 8002e46:	4b15      	ldr	r3, [pc, #84]	@ (8002e9c <UART_SetConfig+0x320>)
 8002e48:	4815      	ldr	r0, [pc, #84]	@ (8002ea0 <UART_SetConfig+0x324>)
 8002e4a:	681a      	ldr	r2, [r3, #0]
 8002e4c:	f012 0f20 	tst.w	r2, #32
 8002e50:	d003      	beq.n	8002e5a <UART_SetConfig+0x2de>
 8002e52:	681b      	ldr	r3, [r3, #0]
 8002e54:	f3c3 03c1 	ubfx	r3, r3, #3, #2
 8002e58:	40d8      	lsrs	r0, r3
 8002e5a:	4b12      	ldr	r3, [pc, #72]	@ (8002ea4 <UART_SetConfig+0x328>)
 8002e5c:	6a62      	ldr	r2, [r4, #36]	@ 0x24
 8002e5e:	6861      	ldr	r1, [r4, #4]
 8002e60:	f833 2012 	ldrh.w	r2, [r3, r2, lsl #1]
 8002e64:	084b      	lsrs	r3, r1, #1
 8002e66:	fbb0 f2f2 	udiv	r2, r0, r2
 8002e6a:	eb03 0342 	add.w	r3, r3, r2, lsl #1
 8002e6e:	f64f 72ef 	movw	r2, #65519	@ 0xffef
 8002e72:	fbb3 f3f1 	udiv	r3, r3, r1
 8002e76:	f1a3 0110 	sub.w	r1, r3, #16
 8002e7a:	4291      	cmp	r1, r2
 8002e7c:	f63f af09 	bhi.w	8002c92 <UART_SetConfig+0x116>
 8002e80:	f023 020f 	bic.w	r2, r3, #15
 8002e84:	f3c3 0342 	ubfx	r3, r3, #1, #3
 8002e88:	6821      	ldr	r1, [r4, #0]
 8002e8a:	b292      	uxth	r2, r2
 8002e8c:	4313      	orrs	r3, r2
 8002e8e:	60cb      	str	r3, [r1, #12]
 8002e90:	e74a      	b.n	8002d28 <UART_SetConfig+0x1ac>
 8002e92:	f5b0 4f00 	cmp.w	r0, #32768	@ 0x8000
 8002e96:	f47f af69 	bne.w	8002d6c <UART_SetConfig+0x1f0>
 8002e9a:	e6b3      	b.n	8002c04 <UART_SetConfig+0x88>
 8002e9c:	58024400 	.word	0x58024400
 8002ea0:	03d09000 	.word	0x03d09000
 8002ea4:	08003ff8 	.word	0x08003ff8

08002ea8 <UART_AdvFeatureConfig>:
 8002ea8:	6a83      	ldr	r3, [r0, #40]	@ 0x28
 8002eaa:	071a      	lsls	r2, r3, #28
 8002eac:	b510      	push	{r4, lr}
 8002eae:	d506      	bpl.n	8002ebe <UART_AdvFeatureConfig+0x16>
 8002eb0:	6801      	ldr	r1, [r0, #0]
 8002eb2:	6b84      	ldr	r4, [r0, #56]	@ 0x38
 8002eb4:	684a      	ldr	r2, [r1, #4]
 8002eb6:	f422 4200 	bic.w	r2, r2, #32768	@ 0x8000
 8002eba:	4322      	orrs	r2, r4
 8002ebc:	604a      	str	r2, [r1, #4]
 8002ebe:	07dc      	lsls	r4, r3, #31
 8002ec0:	d506      	bpl.n	8002ed0 <UART_AdvFeatureConfig+0x28>
 8002ec2:	6801      	ldr	r1, [r0, #0]
 8002ec4:	6ac4      	ldr	r4, [r0, #44]	@ 0x2c
 8002ec6:	684a      	ldr	r2, [r1, #4]
 8002ec8:	f422 3200 	bic.w	r2, r2, #131072	@ 0x20000
 8002ecc:	4322      	orrs	r2, r4
 8002ece:	604a      	str	r2, [r1, #4]
 8002ed0:	0799      	lsls	r1, r3, #30
 8002ed2:	d506      	bpl.n	8002ee2 <UART_AdvFeatureConfig+0x3a>
 8002ed4:	6801      	ldr	r1, [r0, #0]
 8002ed6:	6b04      	ldr	r4, [r0, #48]	@ 0x30
 8002ed8:	684a      	ldr	r2, [r1, #4]
 8002eda:	f422 3280 	bic.w	r2, r2, #65536	@ 0x10000
 8002ede:	4322      	orrs	r2, r4
 8002ee0:	604a      	str	r2, [r1, #4]
 8002ee2:	075a      	lsls	r2, r3, #29
 8002ee4:	d506      	bpl.n	8002ef4 <UART_AdvFeatureConfig+0x4c>
 8002ee6:	6801      	ldr	r1, [r0, #0]
 8002ee8:	6b44      	ldr	r4, [r0, #52]	@ 0x34
 8002eea:	684a      	ldr	r2, [r1, #4]
 8002eec:	f422 2280 	bic.w	r2, r2, #262144	@ 0x40000
 8002ef0:	4322      	orrs	r2, r4
 8002ef2:	604a      	str	r2, [r1, #4]
 8002ef4:	06dc      	lsls	r4, r3, #27
 8002ef6:	d506      	bpl.n	8002f06 <UART_AdvFeatureConfig+0x5e>
 8002ef8:	6801      	ldr	r1, [r0, #0]
 8002efa:	6bc4      	ldr	r4, [r0, #60]	@ 0x3c
 8002efc:	688a      	ldr	r2, [r1, #8]
 8002efe:	f422 5280 	bic.w	r2, r2, #4096	@ 0x1000
 8002f02:	4322      	orrs	r2, r4
 8002f04:	608a      	str	r2, [r1, #8]
 8002f06:	0699      	lsls	r1, r3, #26
 8002f08:	d506      	bpl.n	8002f18 <UART_AdvFeatureConfig+0x70>
 8002f0a:	6801      	ldr	r1, [r0, #0]
 8002f0c:	6c04      	ldr	r4, [r0, #64]	@ 0x40
 8002f0e:	688a      	ldr	r2, [r1, #8]
 8002f10:	f422 5200 	bic.w	r2, r2, #8192	@ 0x2000
 8002f14:	4322      	orrs	r2, r4
 8002f16:	608a      	str	r2, [r1, #8]
 8002f18:	065a      	lsls	r2, r3, #25
 8002f1a:	d510      	bpl.n	8002f3e <UART_AdvFeatureConfig+0x96>
 8002f1c:	6801      	ldr	r1, [r0, #0]
 8002f1e:	6c44      	ldr	r4, [r0, #68]	@ 0x44
 8002f20:	684a      	ldr	r2, [r1, #4]
 8002f22:	f5b4 1f80 	cmp.w	r4, #1048576	@ 0x100000
 8002f26:	f422 1280 	bic.w	r2, r2, #1048576	@ 0x100000
 8002f2a:	ea42 0204 	orr.w	r2, r2, r4
 8002f2e:	604a      	str	r2, [r1, #4]
 8002f30:	d105      	bne.n	8002f3e <UART_AdvFeatureConfig+0x96>
 8002f32:	684a      	ldr	r2, [r1, #4]
 8002f34:	6c84      	ldr	r4, [r0, #72]	@ 0x48
 8002f36:	f422 02c0 	bic.w	r2, r2, #6291456	@ 0x600000
 8002f3a:	4322      	orrs	r2, r4
 8002f3c:	604a      	str	r2, [r1, #4]
 8002f3e:	061b      	lsls	r3, r3, #24
 8002f40:	d506      	bpl.n	8002f50 <UART_AdvFeatureConfig+0xa8>
 8002f42:	6802      	ldr	r2, [r0, #0]
 8002f44:	6cc1      	ldr	r1, [r0, #76]	@ 0x4c
 8002f46:	6853      	ldr	r3, [r2, #4]
 8002f48:	f423 2300 	bic.w	r3, r3, #524288	@ 0x80000
 8002f4c:	430b      	orrs	r3, r1
 8002f4e:	6053      	str	r3, [r2, #4]
 8002f50:	bd10      	pop	{r4, pc}

08002f52 <UART_WaitOnFlagUntilTimeout>:
 8002f52:	e92d 43f8 	stmdb	sp!, {r3, r4, r5, r6, r7, r8, r9, lr}
 8002f56:	f8dd 9020 	ldr.w	r9, [sp, #32]
 8002f5a:	4604      	mov	r4, r0
 8002f5c:	460d      	mov	r5, r1
 8002f5e:	4617      	mov	r7, r2
 8002f60:	4698      	mov	r8, r3
 8002f62:	6822      	ldr	r2, [r4, #0]
 8002f64:	69d3      	ldr	r3, [r2, #28]
 8002f66:	ea35 0303 	bics.w	r3, r5, r3
 8002f6a:	bf0c      	ite	eq
 8002f6c:	2301      	moveq	r3, #1
 8002f6e:	2300      	movne	r3, #0
 8002f70:	42bb      	cmp	r3, r7
 8002f72:	d001      	beq.n	8002f78 <UART_WaitOnFlagUntilTimeout+0x26>
 8002f74:	2000      	movs	r0, #0
 8002f76:	e022      	b.n	8002fbe <UART_WaitOnFlagUntilTimeout+0x6c>
 8002f78:	f1b9 3fff 	cmp.w	r9, #4294967295
 8002f7c:	d0f2      	beq.n	8002f64 <UART_WaitOnFlagUntilTimeout+0x12>
 8002f7e:	f7fd ff5f 	bl	8000e40 <HAL_GetTick>
 8002f82:	eba0 0008 	sub.w	r0, r0, r8
 8002f86:	4548      	cmp	r0, r9
 8002f88:	d829      	bhi.n	8002fde <UART_WaitOnFlagUntilTimeout+0x8c>
 8002f8a:	f1b9 0f00 	cmp.w	r9, #0
 8002f8e:	d026      	beq.n	8002fde <UART_WaitOnFlagUntilTimeout+0x8c>
 8002f90:	6821      	ldr	r1, [r4, #0]
 8002f92:	680b      	ldr	r3, [r1, #0]
 8002f94:	075a      	lsls	r2, r3, #29
 8002f96:	d5e4      	bpl.n	8002f62 <UART_WaitOnFlagUntilTimeout+0x10>
 8002f98:	2d80      	cmp	r5, #128	@ 0x80
 8002f9a:	d0e2      	beq.n	8002f62 <UART_WaitOnFlagUntilTimeout+0x10>
 8002f9c:	2d40      	cmp	r5, #64	@ 0x40
 8002f9e:	d0e0      	beq.n	8002f62 <UART_WaitOnFlagUntilTimeout+0x10>
 8002fa0:	69ce      	ldr	r6, [r1, #28]
 8002fa2:	f016 0608 	ands.w	r6, r6, #8
 8002fa6:	d00c      	beq.n	8002fc2 <UART_WaitOnFlagUntilTimeout+0x70>
 8002fa8:	2508      	movs	r5, #8
 8002faa:	4620      	mov	r0, r4
 8002fac:	620d      	str	r5, [r1, #32]
 8002fae:	f7ff fdb9 	bl	8002b24 <UART_EndRxTransfer>
 8002fb2:	2300      	movs	r3, #0
 8002fb4:	2001      	movs	r0, #1
 8002fb6:	f8c4 5090 	str.w	r5, [r4, #144]	@ 0x90
 8002fba:	f884 3084 	strb.w	r3, [r4, #132]	@ 0x84
 8002fbe:	e8bd 83f8 	ldmia.w	sp!, {r3, r4, r5, r6, r7, r8, r9, pc}
 8002fc2:	69cb      	ldr	r3, [r1, #28]
 8002fc4:	051b      	lsls	r3, r3, #20
 8002fc6:	d5cc      	bpl.n	8002f62 <UART_WaitOnFlagUntilTimeout+0x10>
 8002fc8:	f44f 6300 	mov.w	r3, #2048	@ 0x800
 8002fcc:	4620      	mov	r0, r4
 8002fce:	620b      	str	r3, [r1, #32]
 8002fd0:	f7ff fda8 	bl	8002b24 <UART_EndRxTransfer>
 8002fd4:	2320      	movs	r3, #32
 8002fd6:	f884 6084 	strb.w	r6, [r4, #132]	@ 0x84
 8002fda:	f8c4 3090 	str.w	r3, [r4, #144]	@ 0x90
 8002fde:	2003      	movs	r0, #3
 8002fe0:	e7ed      	b.n	8002fbe <UART_WaitOnFlagUntilTimeout+0x6c>

08002fe2 <HAL_UART_Transmit>:
 8002fe2:	e92d 43f7 	stmdb	sp!, {r0, r1, r2, r4, r5, r6, r7, r8, r9, lr}
 8002fe6:	4698      	mov	r8, r3
 8002fe8:	f8d0 3088 	ldr.w	r3, [r0, #136]	@ 0x88
 8002fec:	4604      	mov	r4, r0
 8002fee:	460e      	mov	r6, r1
 8002ff0:	2b20      	cmp	r3, #32
 8002ff2:	4617      	mov	r7, r2
 8002ff4:	d146      	bne.n	8003084 <HAL_UART_Transmit+0xa2>
 8002ff6:	2900      	cmp	r1, #0
 8002ff8:	d046      	beq.n	8003088 <HAL_UART_Transmit+0xa6>
 8002ffa:	2a00      	cmp	r2, #0
 8002ffc:	d044      	beq.n	8003088 <HAL_UART_Transmit+0xa6>
 8002ffe:	2321      	movs	r3, #33	@ 0x21
 8003000:	2500      	movs	r5, #0
 8003002:	f8c0 5090 	str.w	r5, [r0, #144]	@ 0x90
 8003006:	f8c0 3088 	str.w	r3, [r0, #136]	@ 0x88
 800300a:	f7fd ff19 	bl	8000e40 <HAL_GetTick>
 800300e:	68a3      	ldr	r3, [r4, #8]
 8003010:	4681      	mov	r9, r0
 8003012:	f8a4 7054 	strh.w	r7, [r4, #84]	@ 0x54
 8003016:	f5b3 5f80 	cmp.w	r3, #4096	@ 0x1000
 800301a:	f8a4 7056 	strh.w	r7, [r4, #86]	@ 0x56
 800301e:	d103      	bne.n	8003028 <HAL_UART_Transmit+0x46>
 8003020:	6923      	ldr	r3, [r4, #16]
 8003022:	b90b      	cbnz	r3, 8003028 <HAL_UART_Transmit+0x46>
 8003024:	4635      	mov	r5, r6
 8003026:	461e      	mov	r6, r3
 8003028:	f8b4 2056 	ldrh.w	r2, [r4, #86]	@ 0x56
 800302c:	464b      	mov	r3, r9
 800302e:	f8cd 8000 	str.w	r8, [sp]
 8003032:	b292      	uxth	r2, r2
 8003034:	b942      	cbnz	r2, 8003048 <HAL_UART_Transmit+0x66>
 8003036:	2140      	movs	r1, #64	@ 0x40
 8003038:	4620      	mov	r0, r4
 800303a:	f7ff ff8a 	bl	8002f52 <UART_WaitOnFlagUntilTimeout>
 800303e:	2320      	movs	r3, #32
 8003040:	b948      	cbnz	r0, 8003056 <HAL_UART_Transmit+0x74>
 8003042:	f8c4 3088 	str.w	r3, [r4, #136]	@ 0x88
 8003046:	e009      	b.n	800305c <HAL_UART_Transmit+0x7a>
 8003048:	2200      	movs	r2, #0
 800304a:	2180      	movs	r1, #128	@ 0x80
 800304c:	4620      	mov	r0, r4
 800304e:	f7ff ff80 	bl	8002f52 <UART_WaitOnFlagUntilTimeout>
 8003052:	b130      	cbz	r0, 8003062 <HAL_UART_Transmit+0x80>
 8003054:	2320      	movs	r3, #32
 8003056:	2003      	movs	r0, #3
 8003058:	f8c4 3088 	str.w	r3, [r4, #136]	@ 0x88
 800305c:	b003      	add	sp, #12
 800305e:	e8bd 83f0 	ldmia.w	sp!, {r4, r5, r6, r7, r8, r9, pc}
 8003062:	6822      	ldr	r2, [r4, #0]
 8003064:	b95e      	cbnz	r6, 800307e <HAL_UART_Transmit+0x9c>
 8003066:	f835 3b02 	ldrh.w	r3, [r5], #2
 800306a:	f3c3 0308 	ubfx	r3, r3, #0, #9
 800306e:	6293      	str	r3, [r2, #40]	@ 0x28
 8003070:	f8b4 2056 	ldrh.w	r2, [r4, #86]	@ 0x56
 8003074:	3a01      	subs	r2, #1
 8003076:	b292      	uxth	r2, r2
 8003078:	f8a4 2056 	strh.w	r2, [r4, #86]	@ 0x56
 800307c:	e7d4      	b.n	8003028 <HAL_UART_Transmit+0x46>
 800307e:	f816 3b01 	ldrb.w	r3, [r6], #1
 8003082:	e7f4      	b.n	800306e <HAL_UART_Transmit+0x8c>
 8003084:	2002      	movs	r0, #2
 8003086:	e7e9      	b.n	800305c <HAL_UART_Transmit+0x7a>
 8003088:	2001      	movs	r0, #1
 800308a:	e7e7      	b.n	800305c <HAL_UART_Transmit+0x7a>

0800308c <UART_CheckIdleState>:
 800308c:	b573      	push	{r0, r1, r4, r5, r6, lr}
 800308e:	2600      	movs	r6, #0
 8003090:	4604      	mov	r4, r0
 8003092:	f8c0 6090 	str.w	r6, [r0, #144]	@ 0x90
 8003096:	f7fd fed3 	bl	8000e40 <HAL_GetTick>
 800309a:	6823      	ldr	r3, [r4, #0]
 800309c:	4605      	mov	r5, r0
 800309e:	681b      	ldr	r3, [r3, #0]
 80030a0:	071a      	lsls	r2, r3, #28
 80030a2:	d51c      	bpl.n	80030de <UART_CheckIdleState+0x52>
 80030a4:	f06f 437e 	mvn.w	r3, #4261412864	@ 0xfe000000
 80030a8:	4632      	mov	r2, r6
 80030aa:	f44f 1100 	mov.w	r1, #2097152	@ 0x200000
 80030ae:	9300      	str	r3, [sp, #0]
 80030b0:	4603      	mov	r3, r0
 80030b2:	4620      	mov	r0, r4
 80030b4:	f7ff ff4d 	bl	8002f52 <UART_WaitOnFlagUntilTimeout>
 80030b8:	b188      	cbz	r0, 80030de <UART_CheckIdleState+0x52>
 80030ba:	6822      	ldr	r2, [r4, #0]
 80030bc:	e852 3f00 	ldrex	r3, [r2]
 80030c0:	f023 0380 	bic.w	r3, r3, #128	@ 0x80
 80030c4:	e842 3100 	strex	r1, r3, [r2]
 80030c8:	2900      	cmp	r1, #0
 80030ca:	d1f6      	bne.n	80030ba <UART_CheckIdleState+0x2e>
 80030cc:	2320      	movs	r3, #32
 80030ce:	f8c4 3088 	str.w	r3, [r4, #136]	@ 0x88
 80030d2:	2003      	movs	r0, #3
 80030d4:	2300      	movs	r3, #0
 80030d6:	f884 3084 	strb.w	r3, [r4, #132]	@ 0x84
 80030da:	b002      	add	sp, #8
 80030dc:	bd70      	pop	{r4, r5, r6, pc}
 80030de:	6823      	ldr	r3, [r4, #0]
 80030e0:	681b      	ldr	r3, [r3, #0]
 80030e2:	075b      	lsls	r3, r3, #29
 80030e4:	d524      	bpl.n	8003130 <UART_CheckIdleState+0xa4>
 80030e6:	f06f 437e 	mvn.w	r3, #4261412864	@ 0xfe000000
 80030ea:	2200      	movs	r2, #0
 80030ec:	f44f 0180 	mov.w	r1, #4194304	@ 0x400000
 80030f0:	4620      	mov	r0, r4
 80030f2:	9300      	str	r3, [sp, #0]
 80030f4:	462b      	mov	r3, r5
 80030f6:	f7ff ff2c 	bl	8002f52 <UART_WaitOnFlagUntilTimeout>
 80030fa:	b1c8      	cbz	r0, 8003130 <UART_CheckIdleState+0xa4>
 80030fc:	6822      	ldr	r2, [r4, #0]
 80030fe:	e852 3f00 	ldrex	r3, [r2]
 8003102:	f423 7390 	bic.w	r3, r3, #288	@ 0x120
 8003106:	e842 3100 	strex	r1, r3, [r2]
 800310a:	6822      	ldr	r2, [r4, #0]
 800310c:	2900      	cmp	r1, #0
 800310e:	d1f5      	bne.n	80030fc <UART_CheckIdleState+0x70>
 8003110:	f102 0308 	add.w	r3, r2, #8
 8003114:	e853 3f00 	ldrex	r3, [r3]
 8003118:	f023 0301 	bic.w	r3, r3, #1
 800311c:	f102 0008 	add.w	r0, r2, #8
 8003120:	e840 3100 	strex	r1, r3, [r0]
 8003124:	2900      	cmp	r1, #0
 8003126:	d1f3      	bne.n	8003110 <UART_CheckIdleState+0x84>
 8003128:	2320      	movs	r3, #32
 800312a:	f8c4 308c 	str.w	r3, [r4, #140]	@ 0x8c
 800312e:	e7d0      	b.n	80030d2 <UART_CheckIdleState+0x46>
 8003130:	2320      	movs	r3, #32
 8003132:	2000      	movs	r0, #0
 8003134:	f8c4 3088 	str.w	r3, [r4, #136]	@ 0x88
 8003138:	f8c4 308c 	str.w	r3, [r4, #140]	@ 0x8c
 800313c:	66e0      	str	r0, [r4, #108]	@ 0x6c
 800313e:	6720      	str	r0, [r4, #112]	@ 0x70
 8003140:	e7c8      	b.n	80030d4 <UART_CheckIdleState+0x48>

08003142 <HAL_UART_Init>:
 8003142:	b510      	push	{r4, lr}
 8003144:	4604      	mov	r4, r0
 8003146:	b350      	cbz	r0, 800319e <HAL_UART_Init+0x5c>
 8003148:	f8d0 3088 	ldr.w	r3, [r0, #136]	@ 0x88
 800314c:	b91b      	cbnz	r3, 8003156 <HAL_UART_Init+0x14>
 800314e:	f880 3084 	strb.w	r3, [r0, #132]	@ 0x84
 8003152:	f7fd fd29 	bl	8000ba8 <HAL_UART_MspInit>
 8003156:	2324      	movs	r3, #36	@ 0x24
 8003158:	6822      	ldr	r2, [r4, #0]
 800315a:	f8c4 3088 	str.w	r3, [r4, #136]	@ 0x88
 800315e:	6813      	ldr	r3, [r2, #0]
 8003160:	f023 0301 	bic.w	r3, r3, #1
 8003164:	6013      	str	r3, [r2, #0]
 8003166:	6aa3      	ldr	r3, [r4, #40]	@ 0x28
 8003168:	b113      	cbz	r3, 8003170 <HAL_UART_Init+0x2e>
 800316a:	4620      	mov	r0, r4
 800316c:	f7ff fe9c 	bl	8002ea8 <UART_AdvFeatureConfig>
 8003170:	4620      	mov	r0, r4
 8003172:	f7ff fd03 	bl	8002b7c <UART_SetConfig>
 8003176:	2801      	cmp	r0, #1
 8003178:	d011      	beq.n	800319e <HAL_UART_Init+0x5c>
 800317a:	6823      	ldr	r3, [r4, #0]
 800317c:	4620      	mov	r0, r4
 800317e:	685a      	ldr	r2, [r3, #4]
 8003180:	f422 4290 	bic.w	r2, r2, #18432	@ 0x4800
 8003184:	605a      	str	r2, [r3, #4]
 8003186:	689a      	ldr	r2, [r3, #8]
 8003188:	f022 022a 	bic.w	r2, r2, #42	@ 0x2a
 800318c:	609a      	str	r2, [r3, #8]
 800318e:	681a      	ldr	r2, [r3, #0]
 8003190:	f042 0201 	orr.w	r2, r2, #1
 8003194:	e8bd 4010 	ldmia.w	sp!, {r4, lr}
 8003198:	601a      	str	r2, [r3, #0]
 800319a:	f7ff bf77 	b.w	800308c <UART_CheckIdleState>
 800319e:	2001      	movs	r0, #1
 80031a0:	bd10      	pop	{r4, pc}
	...

080031a4 <UARTEx_SetNbDataToProcess>:
 80031a4:	6e43      	ldr	r3, [r0, #100]	@ 0x64
 80031a6:	b530      	push	{r4, r5, lr}
 80031a8:	b92b      	cbnz	r3, 80031b6 <UARTEx_SetNbDataToProcess+0x12>
 80031aa:	2301      	movs	r3, #1
 80031ac:	f8a0 306a 	strh.w	r3, [r0, #106]	@ 0x6a
 80031b0:	f8a0 3068 	strh.w	r3, [r0, #104]	@ 0x68
 80031b4:	bd30      	pop	{r4, r5, pc}
 80031b6:	6803      	ldr	r3, [r0, #0]
 80031b8:	4d09      	ldr	r5, [pc, #36]	@ (80031e0 <UARTEx_SetNbDataToProcess+0x3c>)
 80031ba:	689a      	ldr	r2, [r3, #8]
 80031bc:	6899      	ldr	r1, [r3, #8]
 80031be:	4c09      	ldr	r4, [pc, #36]	@ (80031e4 <UARTEx_SetNbDataToProcess+0x40>)
 80031c0:	f3c2 6242 	ubfx	r2, r2, #25, #3
 80031c4:	0f49      	lsrs	r1, r1, #29
 80031c6:	5c6b      	ldrb	r3, [r5, r1]
 80031c8:	5c61      	ldrb	r1, [r4, r1]
 80031ca:	011b      	lsls	r3, r3, #4
 80031cc:	fbb3 f3f1 	udiv	r3, r3, r1
 80031d0:	f8a0 306a 	strh.w	r3, [r0, #106]	@ 0x6a
 80031d4:	5cab      	ldrb	r3, [r5, r2]
 80031d6:	5ca2      	ldrb	r2, [r4, r2]
 80031d8:	011b      	lsls	r3, r3, #4
 80031da:	fbb3 f3f2 	udiv	r3, r3, r2
 80031de:	e7e7      	b.n	80031b0 <UARTEx_SetNbDataToProcess+0xc>
 80031e0:	08004018 	.word	0x08004018
 80031e4:	08004010 	.word	0x08004010

080031e8 <HAL_UARTEx_DisableFifoMode>:
 80031e8:	f890 3084 	ldrb.w	r3, [r0, #132]	@ 0x84
 80031ec:	2b01      	cmp	r3, #1
 80031ee:	d014      	beq.n	800321a <HAL_UARTEx_DisableFifoMode+0x32>
 80031f0:	6802      	ldr	r2, [r0, #0]
 80031f2:	2324      	movs	r3, #36	@ 0x24
 80031f4:	f8c0 3088 	str.w	r3, [r0, #136]	@ 0x88
 80031f8:	6811      	ldr	r1, [r2, #0]
 80031fa:	6813      	ldr	r3, [r2, #0]
 80031fc:	f021 5100 	bic.w	r1, r1, #536870912	@ 0x20000000
 8003200:	f023 0301 	bic.w	r3, r3, #1
 8003204:	6013      	str	r3, [r2, #0]
 8003206:	2300      	movs	r3, #0
 8003208:	6643      	str	r3, [r0, #100]	@ 0x64
 800320a:	6011      	str	r1, [r2, #0]
 800320c:	2220      	movs	r2, #32
 800320e:	f880 3084 	strb.w	r3, [r0, #132]	@ 0x84
 8003212:	f8c0 2088 	str.w	r2, [r0, #136]	@ 0x88
 8003216:	4618      	mov	r0, r3
 8003218:	4770      	bx	lr
 800321a:	2002      	movs	r0, #2
 800321c:	4770      	bx	lr

0800321e <HAL_UARTEx_SetTxFifoThreshold>:
 800321e:	b570      	push	{r4, r5, r6, lr}
 8003220:	f890 3084 	ldrb.w	r3, [r0, #132]	@ 0x84
 8003224:	4604      	mov	r4, r0
 8003226:	2b01      	cmp	r3, #1
 8003228:	d017      	beq.n	800325a <HAL_UARTEx_SetTxFifoThreshold+0x3c>
 800322a:	6805      	ldr	r5, [r0, #0]
 800322c:	2324      	movs	r3, #36	@ 0x24
 800322e:	f8c0 3088 	str.w	r3, [r0, #136]	@ 0x88
 8003232:	682e      	ldr	r6, [r5, #0]
 8003234:	682b      	ldr	r3, [r5, #0]
 8003236:	f023 0301 	bic.w	r3, r3, #1
 800323a:	602b      	str	r3, [r5, #0]
 800323c:	68ab      	ldr	r3, [r5, #8]
 800323e:	f023 4360 	bic.w	r3, r3, #3758096384	@ 0xe0000000
 8003242:	4319      	orrs	r1, r3
 8003244:	60a9      	str	r1, [r5, #8]
 8003246:	f7ff ffad 	bl	80031a4 <UARTEx_SetNbDataToProcess>
 800324a:	2320      	movs	r3, #32
 800324c:	602e      	str	r6, [r5, #0]
 800324e:	f8c0 3088 	str.w	r3, [r0, #136]	@ 0x88
 8003252:	2000      	movs	r0, #0
 8003254:	f884 0084 	strb.w	r0, [r4, #132]	@ 0x84
 8003258:	bd70      	pop	{r4, r5, r6, pc}
 800325a:	2002      	movs	r0, #2
 800325c:	e7fc      	b.n	8003258 <HAL_UARTEx_SetTxFifoThreshold+0x3a>

0800325e <HAL_UARTEx_SetRxFifoThreshold>:
 800325e:	b570      	push	{r4, r5, r6, lr}
 8003260:	f890 3084 	ldrb.w	r3, [r0, #132]	@ 0x84
 8003264:	4604      	mov	r4, r0
 8003266:	2b01      	cmp	r3, #1
 8003268:	d017      	beq.n	800329a <HAL_UARTEx_SetRxFifoThreshold+0x3c>
 800326a:	6805      	ldr	r5, [r0, #0]
 800326c:	2324      	movs	r3, #36	@ 0x24
 800326e:	f8c0 3088 	str.w	r3, [r0, #136]	@ 0x88
 8003272:	682e      	ldr	r6, [r5, #0]
 8003274:	682b      	ldr	r3, [r5, #0]
 8003276:	f023 0301 	bic.w	r3, r3, #1
 800327a:	602b      	str	r3, [r5, #0]
 800327c:	68ab      	ldr	r3, [r5, #8]
 800327e:	f023 6360 	bic.w	r3, r3, #234881024	@ 0xe000000
 8003282:	4319      	orrs	r1, r3
 8003284:	60a9      	str	r1, [r5, #8]
 8003286:	f7ff ff8d 	bl	80031a4 <UARTEx_SetNbDataToProcess>
 800328a:	2320      	movs	r3, #32
 800328c:	602e      	str	r6, [r5, #0]
 800328e:	f8c0 3088 	str.w	r3, [r0, #136]	@ 0x88
 8003292:	2000      	movs	r0, #0
 8003294:	f884 0084 	strb.w	r0, [r4, #132]	@ 0x84
 8003298:	bd70      	pop	{r4, r5, r6, pc}
 800329a:	2002      	movs	r0, #2
 800329c:	e7fc      	b.n	8003298 <HAL_UARTEx_SetRxFifoThreshold+0x3a>

0800329e <USB_CoreReset>:
 800329e:	b082      	sub	sp, #8
 80032a0:	2300      	movs	r3, #0
 80032a2:	4602      	mov	r2, r0
 80032a4:	9301      	str	r3, [sp, #4]
 80032a6:	9b01      	ldr	r3, [sp, #4]
 80032a8:	3301      	adds	r3, #1
 80032aa:	9301      	str	r3, [sp, #4]
 80032ac:	9b01      	ldr	r3, [sp, #4]
 80032ae:	f1b3 6f70 	cmp.w	r3, #251658240	@ 0xf000000
 80032b2:	d815      	bhi.n	80032e0 <USB_CoreReset+0x42>
 80032b4:	6913      	ldr	r3, [r2, #16]
 80032b6:	2b00      	cmp	r3, #0
 80032b8:	daf5      	bge.n	80032a6 <USB_CoreReset+0x8>
 80032ba:	2300      	movs	r3, #0
 80032bc:	9301      	str	r3, [sp, #4]
 80032be:	6913      	ldr	r3, [r2, #16]
 80032c0:	f043 0301 	orr.w	r3, r3, #1
 80032c4:	6113      	str	r3, [r2, #16]
 80032c6:	9b01      	ldr	r3, [sp, #4]
 80032c8:	3301      	adds	r3, #1
 80032ca:	9301      	str	r3, [sp, #4]
 80032cc:	9b01      	ldr	r3, [sp, #4]
 80032ce:	f1b3 6f70 	cmp.w	r3, #251658240	@ 0xf000000
 80032d2:	d805      	bhi.n	80032e0 <USB_CoreReset+0x42>
 80032d4:	6910      	ldr	r0, [r2, #16]
 80032d6:	f010 0001 	ands.w	r0, r0, #1
 80032da:	d1f4      	bne.n	80032c6 <USB_CoreReset+0x28>
 80032dc:	b002      	add	sp, #8
 80032de:	4770      	bx	lr
 80032e0:	2003      	movs	r0, #3
 80032e2:	e7fb      	b.n	80032dc <USB_CoreReset+0x3e>

080032e4 <USB_CoreInit>:
 80032e4:	b084      	sub	sp, #16
 80032e6:	b538      	push	{r3, r4, r5, lr}
 80032e8:	ad05      	add	r5, sp, #20
 80032ea:	4604      	mov	r4, r0
 80032ec:	e885 000e 	stmia.w	r5, {r1, r2, r3}
 80032f0:	f89d 3019 	ldrb.w	r3, [sp, #25]
 80032f4:	2b01      	cmp	r3, #1
 80032f6:	d131      	bne.n	800335c <USB_CoreInit+0x78>
 80032f8:	6b83      	ldr	r3, [r0, #56]	@ 0x38
 80032fa:	f423 3380 	bic.w	r3, r3, #65536	@ 0x10000
 80032fe:	6383      	str	r3, [r0, #56]	@ 0x38
 8003300:	68c3      	ldr	r3, [r0, #12]
 8003302:	f423 0384 	bic.w	r3, r3, #4325376	@ 0x420000
 8003306:	f023 0340 	bic.w	r3, r3, #64	@ 0x40
 800330a:	60c3      	str	r3, [r0, #12]
 800330c:	68c3      	ldr	r3, [r0, #12]
 800330e:	f423 1340 	bic.w	r3, r3, #3145728	@ 0x300000
 8003312:	60c3      	str	r3, [r0, #12]
 8003314:	f89d 3020 	ldrb.w	r3, [sp, #32]
 8003318:	2b01      	cmp	r3, #1
 800331a:	d103      	bne.n	8003324 <USB_CoreInit+0x40>
 800331c:	68c3      	ldr	r3, [r0, #12]
 800331e:	f443 1380 	orr.w	r3, r3, #1048576	@ 0x100000
 8003322:	60c3      	str	r3, [r0, #12]
 8003324:	4620      	mov	r0, r4
 8003326:	f7ff ffba 	bl	800329e <USB_CoreReset>
 800332a:	f89d 3016 	ldrb.w	r3, [sp, #22]
 800332e:	2b01      	cmp	r3, #1
 8003330:	d110      	bne.n	8003354 <USB_CoreInit+0x70>
 8003332:	6de3      	ldr	r3, [r4, #92]	@ 0x5c
 8003334:	b29b      	uxth	r3, r3
 8003336:	65e3      	str	r3, [r4, #92]	@ 0x5c
 8003338:	6de3      	ldr	r3, [r4, #92]	@ 0x5c
 800333a:	f043 737b 	orr.w	r3, r3, #65798144	@ 0x3ec0000
 800333e:	f443 3300 	orr.w	r3, r3, #131072	@ 0x20000
 8003342:	65e3      	str	r3, [r4, #92]	@ 0x5c
 8003344:	68a3      	ldr	r3, [r4, #8]
 8003346:	f043 0306 	orr.w	r3, r3, #6
 800334a:	60a3      	str	r3, [r4, #8]
 800334c:	68a3      	ldr	r3, [r4, #8]
 800334e:	f043 0320 	orr.w	r3, r3, #32
 8003352:	60a3      	str	r3, [r4, #8]
 8003354:	e8bd 4038 	ldmia.w	sp!, {r3, r4, r5, lr}
 8003358:	b004      	add	sp, #16
 800335a:	4770      	bx	lr
 800335c:	68c3      	ldr	r3, [r0, #12]
 800335e:	f043 0340 	orr.w	r3, r3, #64	@ 0x40
 8003362:	60c3      	str	r3, [r0, #12]
 8003364:	f7ff ff9b 	bl	800329e <USB_CoreReset>
 8003368:	f89d 301d 	ldrb.w	r3, [sp, #29]
 800336c:	b923      	cbnz	r3, 8003378 <USB_CoreInit+0x94>
 800336e:	6ba3      	ldr	r3, [r4, #56]	@ 0x38
 8003370:	f443 3380 	orr.w	r3, r3, #65536	@ 0x10000
 8003374:	63a3      	str	r3, [r4, #56]	@ 0x38
 8003376:	e7d8      	b.n	800332a <USB_CoreInit+0x46>
 8003378:	6ba3      	ldr	r3, [r4, #56]	@ 0x38
 800337a:	f423 3380 	bic.w	r3, r3, #65536	@ 0x10000
 800337e:	e7f9      	b.n	8003374 <USB_CoreInit+0x90>

08003380 <USB_DisableGlobalInt>:
 8003380:	6883      	ldr	r3, [r0, #8]
 8003382:	f023 0301 	bic.w	r3, r3, #1
 8003386:	6083      	str	r3, [r0, #8]
 8003388:	2000      	movs	r0, #0
 800338a:	4770      	bx	lr

0800338c <USB_SetCurrentMode>:
 800338c:	b538      	push	{r3, r4, r5, lr}
 800338e:	68c3      	ldr	r3, [r0, #12]
 8003390:	2901      	cmp	r1, #1
 8003392:	4605      	mov	r5, r0
 8003394:	460c      	mov	r4, r1
 8003396:	f023 43c0 	bic.w	r3, r3, #1610612736	@ 0x60000000
 800339a:	60c3      	str	r3, [r0, #12]
 800339c:	d113      	bne.n	80033c6 <USB_SetCurrentMode+0x3a>
 800339e:	68c3      	ldr	r3, [r0, #12]
 80033a0:	2400      	movs	r4, #0
 80033a2:	f043 5300 	orr.w	r3, r3, #536870912	@ 0x20000000
 80033a6:	60c3      	str	r3, [r0, #12]
 80033a8:	200a      	movs	r0, #10
 80033aa:	340a      	adds	r4, #10
 80033ac:	f7fd fd4e 	bl	8000e4c <HAL_Delay>
 80033b0:	696b      	ldr	r3, [r5, #20]
 80033b2:	07d9      	lsls	r1, r3, #31
 80033b4:	d402      	bmi.n	80033bc <USB_SetCurrentMode+0x30>
 80033b6:	2cc8      	cmp	r4, #200	@ 0xc8
 80033b8:	d1f6      	bne.n	80033a8 <USB_SetCurrentMode+0x1c>
 80033ba:	24c8      	movs	r4, #200	@ 0xc8
 80033bc:	f1a4 03c8 	sub.w	r3, r4, #200	@ 0xc8
 80033c0:	4258      	negs	r0, r3
 80033c2:	4158      	adcs	r0, r3
 80033c4:	bd38      	pop	{r3, r4, r5, pc}
 80033c6:	b969      	cbnz	r1, 80033e4 <USB_SetCurrentMode+0x58>
 80033c8:	68c3      	ldr	r3, [r0, #12]
 80033ca:	f043 4380 	orr.w	r3, r3, #1073741824	@ 0x40000000
 80033ce:	60c3      	str	r3, [r0, #12]
 80033d0:	200a      	movs	r0, #10
 80033d2:	340a      	adds	r4, #10
 80033d4:	f7fd fd3a 	bl	8000e4c <HAL_Delay>
 80033d8:	696b      	ldr	r3, [r5, #20]
 80033da:	07da      	lsls	r2, r3, #31
 80033dc:	d5ee      	bpl.n	80033bc <USB_SetCurrentMode+0x30>
 80033de:	2cc8      	cmp	r4, #200	@ 0xc8
 80033e0:	d1f6      	bne.n	80033d0 <USB_SetCurrentMode+0x44>
 80033e2:	e7ea      	b.n	80033ba <USB_SetCurrentMode+0x2e>
 80033e4:	2001      	movs	r0, #1
 80033e6:	e7ed      	b.n	80033c4 <USB_SetCurrentMode+0x38>

080033e8 <USB_FlushTxFifo>:
 80033e8:	b082      	sub	sp, #8
 80033ea:	2300      	movs	r3, #0
 80033ec:	4602      	mov	r2, r0
 80033ee:	9301      	str	r3, [sp, #4]
 80033f0:	9b01      	ldr	r3, [sp, #4]
 80033f2:	3301      	adds	r3, #1
 80033f4:	9301      	str	r3, [sp, #4]
 80033f6:	9b01      	ldr	r3, [sp, #4]
 80033f8:	f1b3 6f70 	cmp.w	r3, #251658240	@ 0xf000000
 80033fc:	d815      	bhi.n	800342a <USB_FlushTxFifo+0x42>
 80033fe:	6913      	ldr	r3, [r2, #16]
 8003400:	2b00      	cmp	r3, #0
 8003402:	daf5      	bge.n	80033f0 <USB_FlushTxFifo+0x8>
 8003404:	0189      	lsls	r1, r1, #6
 8003406:	2300      	movs	r3, #0
 8003408:	f041 0120 	orr.w	r1, r1, #32
 800340c:	9301      	str	r3, [sp, #4]
 800340e:	6111      	str	r1, [r2, #16]
 8003410:	9b01      	ldr	r3, [sp, #4]
 8003412:	3301      	adds	r3, #1
 8003414:	9301      	str	r3, [sp, #4]
 8003416:	9b01      	ldr	r3, [sp, #4]
 8003418:	f1b3 6f70 	cmp.w	r3, #251658240	@ 0xf000000
 800341c:	d805      	bhi.n	800342a <USB_FlushTxFifo+0x42>
 800341e:	6910      	ldr	r0, [r2, #16]
 8003420:	f010 0020 	ands.w	r0, r0, #32
 8003424:	d1f4      	bne.n	8003410 <USB_FlushTxFifo+0x28>
 8003426:	b002      	add	sp, #8
 8003428:	4770      	bx	lr
 800342a:	2003      	movs	r0, #3
 800342c:	e7fb      	b.n	8003426 <USB_FlushTxFifo+0x3e>

0800342e <USB_FlushRxFifo>:
 800342e:	b082      	sub	sp, #8
 8003430:	2300      	movs	r3, #0
 8003432:	4602      	mov	r2, r0
 8003434:	9301      	str	r3, [sp, #4]
 8003436:	9b01      	ldr	r3, [sp, #4]
 8003438:	3301      	adds	r3, #1
 800343a:	9301      	str	r3, [sp, #4]
 800343c:	9b01      	ldr	r3, [sp, #4]
 800343e:	f1b3 6f70 	cmp.w	r3, #251658240	@ 0xf000000
 8003442:	d813      	bhi.n	800346c <USB_FlushRxFifo+0x3e>
 8003444:	6913      	ldr	r3, [r2, #16]
 8003446:	2b00      	cmp	r3, #0
 8003448:	daf5      	bge.n	8003436 <USB_FlushRxFifo+0x8>
 800344a:	2300      	movs	r3, #0
 800344c:	9301      	str	r3, [sp, #4]
 800344e:	2310      	movs	r3, #16
 8003450:	6113      	str	r3, [r2, #16]
 8003452:	9b01      	ldr	r3, [sp, #4]
 8003454:	3301      	adds	r3, #1
 8003456:	9301      	str	r3, [sp, #4]
 8003458:	9b01      	ldr	r3, [sp, #4]
 800345a:	f1b3 6f70 	cmp.w	r3, #251658240	@ 0xf000000
 800345e:	d805      	bhi.n	800346c <USB_FlushRxFifo+0x3e>
 8003460:	6910      	ldr	r0, [r2, #16]
 8003462:	f010 0010 	ands.w	r0, r0, #16
 8003466:	d1f4      	bne.n	8003452 <USB_FlushRxFifo+0x24>
 8003468:	b002      	add	sp, #8
 800346a:	4770      	bx	lr
 800346c:	2003      	movs	r0, #3
 800346e:	e7fb      	b.n	8003468 <USB_FlushRxFifo+0x3a>

08003470 <USB_SetDevSpeed>:
 8003470:	f8d0 3800 	ldr.w	r3, [r0, #2048]	@ 0x800
 8003474:	4319      	orrs	r1, r3
 8003476:	f8c0 1800 	str.w	r1, [r0, #2048]	@ 0x800
 800347a:	2000      	movs	r0, #0
 800347c:	4770      	bx	lr
	...

08003480 <USB_DevInit>:
 8003480:	b084      	sub	sp, #16
 8003482:	e92d 43f8 	stmdb	sp!, {r3, r4, r5, r6, r7, r8, r9, lr}
 8003486:	4604      	mov	r4, r0
 8003488:	a809      	add	r0, sp, #36	@ 0x24
 800348a:	e880 000e 	stmia.w	r0, {r1, r2, r3}
 800348e:	2300      	movs	r3, #0
 8003490:	f89d 6024 	ldrb.w	r6, [sp, #36]	@ 0x24
 8003494:	f89d 502e 	ldrb.w	r5, [sp, #46]	@ 0x2e
 8003498:	4619      	mov	r1, r3
 800349a:	f103 0240 	add.w	r2, r3, #64	@ 0x40
 800349e:	3301      	adds	r3, #1
 80034a0:	eb04 0282 	add.w	r2, r4, r2, lsl #2
 80034a4:	2b0f      	cmp	r3, #15
 80034a6:	6051      	str	r1, [r2, #4]
 80034a8:	d1f7      	bne.n	800349a <USB_DevInit+0x1a>
 80034aa:	f504 6700 	add.w	r7, r4, #2048	@ 0x800
 80034ae:	2d00      	cmp	r5, #0
 80034b0:	d16c      	bne.n	800358c <USB_DevInit+0x10c>
 80034b2:	687b      	ldr	r3, [r7, #4]
 80034b4:	f043 0302 	orr.w	r3, r3, #2
 80034b8:	607b      	str	r3, [r7, #4]
 80034ba:	6ba3      	ldr	r3, [r4, #56]	@ 0x38
 80034bc:	f423 1300 	bic.w	r3, r3, #2097152	@ 0x200000
 80034c0:	63a3      	str	r3, [r4, #56]	@ 0x38
 80034c2:	6823      	ldr	r3, [r4, #0]
 80034c4:	f043 0340 	orr.w	r3, r3, #64	@ 0x40
 80034c8:	6023      	str	r3, [r4, #0]
 80034ca:	6823      	ldr	r3, [r4, #0]
 80034cc:	f043 0380 	orr.w	r3, r3, #128	@ 0x80
 80034d0:	6023      	str	r3, [r4, #0]
 80034d2:	2300      	movs	r3, #0
 80034d4:	f8c4 3e00 	str.w	r3, [r4, #3584]	@ 0xe00
 80034d8:	f89d 3029 	ldrb.w	r3, [sp, #41]	@ 0x29
 80034dc:	2b01      	cmp	r3, #1
 80034de:	d15c      	bne.n	800359a <USB_DevInit+0x11a>
 80034e0:	f89d 1027 	ldrb.w	r1, [sp, #39]	@ 0x27
 80034e4:	2900      	cmp	r1, #0
 80034e6:	d156      	bne.n	8003596 <USB_DevInit+0x116>
 80034e8:	4620      	mov	r0, r4
 80034ea:	f64f 387f 	movw	r8, #64383	@ 0xfb7f
 80034ee:	f7ff ffbf 	bl	8003470 <USB_SetDevSpeed>
 80034f2:	2110      	movs	r1, #16
 80034f4:	4620      	mov	r0, r4
 80034f6:	f7ff ff77 	bl	80033e8 <USB_FlushTxFifo>
 80034fa:	4601      	mov	r1, r0
 80034fc:	4620      	mov	r0, r4
 80034fe:	f7ff ff96 	bl	800342e <USB_FlushRxFifo>
 8003502:	4308      	orrs	r0, r1
 8003504:	2300      	movs	r3, #0
 8003506:	f504 6210 	add.w	r2, r4, #2304	@ 0x900
 800350a:	b2c0      	uxtb	r0, r0
 800350c:	f04f 4c90 	mov.w	ip, #1207959552	@ 0x48000000
 8003510:	4619      	mov	r1, r3
 8003512:	f04f 6e00 	mov.w	lr, #134217728	@ 0x8000000
 8003516:	3800      	subs	r0, #0
 8003518:	613b      	str	r3, [r7, #16]
 800351a:	617b      	str	r3, [r7, #20]
 800351c:	bf18      	it	ne
 800351e:	2001      	movne	r0, #1
 8003520:	61fb      	str	r3, [r7, #28]
 8003522:	429e      	cmp	r6, r3
 8003524:	d83b      	bhi.n	800359e <USB_DevInit+0x11e>
 8003526:	2200      	movs	r2, #0
 8003528:	f504 6330 	add.w	r3, r4, #2816	@ 0xb00
 800352c:	f04f 4c90 	mov.w	ip, #1207959552	@ 0x48000000
 8003530:	f04f 6e00 	mov.w	lr, #134217728	@ 0x8000000
 8003534:	4611      	mov	r1, r2
 8003536:	f64f 387f 	movw	r8, #64383	@ 0xfb7f
 800353a:	4296      	cmp	r6, r2
 800353c:	d842      	bhi.n	80035c4 <USB_DevInit+0x144>
 800353e:	693b      	ldr	r3, [r7, #16]
 8003540:	f423 7380 	bic.w	r3, r3, #256	@ 0x100
 8003544:	613b      	str	r3, [r7, #16]
 8003546:	2300      	movs	r3, #0
 8003548:	61a3      	str	r3, [r4, #24]
 800354a:	f06f 4380 	mvn.w	r3, #1073741824	@ 0x40000000
 800354e:	6163      	str	r3, [r4, #20]
 8003550:	f89d 3026 	ldrb.w	r3, [sp, #38]	@ 0x26
 8003554:	b91b      	cbnz	r3, 800355e <USB_DevInit+0xde>
 8003556:	69a3      	ldr	r3, [r4, #24]
 8003558:	f043 0310 	orr.w	r3, r3, #16
 800355c:	61a3      	str	r3, [r4, #24]
 800355e:	69a2      	ldr	r2, [r4, #24]
 8003560:	4b22      	ldr	r3, [pc, #136]	@ (80035ec <USB_DevInit+0x16c>)
 8003562:	4313      	orrs	r3, r2
 8003564:	61a3      	str	r3, [r4, #24]
 8003566:	f89d 302a 	ldrb.w	r3, [sp, #42]	@ 0x2a
 800356a:	b11b      	cbz	r3, 8003574 <USB_DevInit+0xf4>
 800356c:	69a3      	ldr	r3, [r4, #24]
 800356e:	f043 0308 	orr.w	r3, r3, #8
 8003572:	61a3      	str	r3, [r4, #24]
 8003574:	2d01      	cmp	r5, #1
 8003576:	d105      	bne.n	8003584 <USB_DevInit+0x104>
 8003578:	69a3      	ldr	r3, [r4, #24]
 800357a:	f043 4380 	orr.w	r3, r3, #1073741824	@ 0x40000000
 800357e:	f043 0304 	orr.w	r3, r3, #4
 8003582:	61a3      	str	r3, [r4, #24]
 8003584:	e8bd 43f8 	ldmia.w	sp!, {r3, r4, r5, r6, r7, r8, r9, lr}
 8003588:	b004      	add	sp, #16
 800358a:	4770      	bx	lr
 800358c:	6ba3      	ldr	r3, [r4, #56]	@ 0x38
 800358e:	f443 1300 	orr.w	r3, r3, #2097152	@ 0x200000
 8003592:	63a3      	str	r3, [r4, #56]	@ 0x38
 8003594:	e79d      	b.n	80034d2 <USB_DevInit+0x52>
 8003596:	4619      	mov	r1, r3
 8003598:	e7a6      	b.n	80034e8 <USB_DevInit+0x68>
 800359a:	2103      	movs	r1, #3
 800359c:	e7a4      	b.n	80034e8 <USB_DevInit+0x68>
 800359e:	f8d2 9000 	ldr.w	r9, [r2]
 80035a2:	f1b9 0f00 	cmp.w	r9, #0
 80035a6:	da0b      	bge.n	80035c0 <USB_DevInit+0x140>
 80035a8:	b93b      	cbnz	r3, 80035ba <USB_DevInit+0x13a>
 80035aa:	f8c2 e000 	str.w	lr, [r2]
 80035ae:	6111      	str	r1, [r2, #16]
 80035b0:	3301      	adds	r3, #1
 80035b2:	f8c2 8008 	str.w	r8, [r2, #8]
 80035b6:	3220      	adds	r2, #32
 80035b8:	e7b3      	b.n	8003522 <USB_DevInit+0xa2>
 80035ba:	f8c2 c000 	str.w	ip, [r2]
 80035be:	e7f6      	b.n	80035ae <USB_DevInit+0x12e>
 80035c0:	6011      	str	r1, [r2, #0]
 80035c2:	e7f4      	b.n	80035ae <USB_DevInit+0x12e>
 80035c4:	f8d3 9000 	ldr.w	r9, [r3]
 80035c8:	f1b9 0f00 	cmp.w	r9, #0
 80035cc:	da0b      	bge.n	80035e6 <USB_DevInit+0x166>
 80035ce:	b93a      	cbnz	r2, 80035e0 <USB_DevInit+0x160>
 80035d0:	f8c3 e000 	str.w	lr, [r3]
 80035d4:	6119      	str	r1, [r3, #16]
 80035d6:	3201      	adds	r2, #1
 80035d8:	f8c3 8008 	str.w	r8, [r3, #8]
 80035dc:	3320      	adds	r3, #32
 80035de:	e7ac      	b.n	800353a <USB_DevInit+0xba>
 80035e0:	f8c3 c000 	str.w	ip, [r3]
 80035e4:	e7f6      	b.n	80035d4 <USB_DevInit+0x154>
 80035e6:	6019      	str	r1, [r3, #0]
 80035e8:	e7f4      	b.n	80035d4 <USB_DevInit+0x154>
 80035ea:	bf00      	nop
 80035ec:	803c3800 	.word	0x803c3800

080035f0 <USB_DevDisconnect>:
 80035f0:	f8d0 3e00 	ldr.w	r3, [r0, #3584]	@ 0xe00
 80035f4:	f023 0303 	bic.w	r3, r3, #3
 80035f8:	f8c0 3e00 	str.w	r3, [r0, #3584]	@ 0xe00
 80035fc:	f8d0 3804 	ldr.w	r3, [r0, #2052]	@ 0x804
 8003600:	f043 0302 	orr.w	r3, r3, #2
 8003604:	f8c0 3804 	str.w	r3, [r0, #2052]	@ 0x804
 8003608:	2000      	movs	r0, #0
 800360a:	4770      	bx	lr

0800360c <siprintf>:
 800360c:	b40e      	push	{r1, r2, r3}
 800360e:	b500      	push	{lr}
 8003610:	b09c      	sub	sp, #112	@ 0x70
 8003612:	ab1d      	add	r3, sp, #116	@ 0x74
 8003614:	9002      	str	r0, [sp, #8]
 8003616:	9006      	str	r0, [sp, #24]
 8003618:	f06f 4100 	mvn.w	r1, #2147483648	@ 0x80000000
 800361c:	4809      	ldr	r0, [pc, #36]	@ (8003644 <siprintf+0x38>)
 800361e:	9107      	str	r1, [sp, #28]
 8003620:	9104      	str	r1, [sp, #16]
 8003622:	4909      	ldr	r1, [pc, #36]	@ (8003648 <siprintf+0x3c>)
 8003624:	f853 2b04 	ldr.w	r2, [r3], #4
 8003628:	9105      	str	r1, [sp, #20]
 800362a:	6800      	ldr	r0, [r0, #0]
 800362c:	9301      	str	r3, [sp, #4]
 800362e:	a902      	add	r1, sp, #8
 8003630:	f000 f994 	bl	800395c <_svfiprintf_r>
 8003634:	9b02      	ldr	r3, [sp, #8]
 8003636:	2200      	movs	r2, #0
 8003638:	701a      	strb	r2, [r3, #0]
 800363a:	b01c      	add	sp, #112	@ 0x70
 800363c:	f85d eb04 	ldr.w	lr, [sp], #4
 8003640:	b003      	add	sp, #12
 8003642:	4770      	bx	lr
 8003644:	24000024 	.word	0x24000024
 8003648:	ffff0208 	.word	0xffff0208

0800364c <memset>:
 800364c:	4402      	add	r2, r0
 800364e:	4603      	mov	r3, r0
 8003650:	4293      	cmp	r3, r2
 8003652:	d100      	bne.n	8003656 <memset+0xa>
 8003654:	4770      	bx	lr
 8003656:	f803 1b01 	strb.w	r1, [r3], #1
 800365a:	e7f9      	b.n	8003650 <memset+0x4>

0800365c <__errno>:
 800365c:	4b01      	ldr	r3, [pc, #4]	@ (8003664 <__errno+0x8>)
 800365e:	6818      	ldr	r0, [r3, #0]
 8003660:	4770      	bx	lr
 8003662:	bf00      	nop
 8003664:	24000024 	.word	0x24000024

08003668 <__libc_init_array>:
 8003668:	b570      	push	{r4, r5, r6, lr}
 800366a:	4d0d      	ldr	r5, [pc, #52]	@ (80036a0 <__libc_init_array+0x38>)
 800366c:	4c0d      	ldr	r4, [pc, #52]	@ (80036a4 <__libc_init_array+0x3c>)
 800366e:	1b64      	subs	r4, r4, r5
 8003670:	10a4      	asrs	r4, r4, #2
 8003672:	2600      	movs	r6, #0
 8003674:	42a6      	cmp	r6, r4
 8003676:	d109      	bne.n	800368c <__libc_init_array+0x24>
 8003678:	4d0b      	ldr	r5, [pc, #44]	@ (80036a8 <__libc_init_array+0x40>)
 800367a:	4c0c      	ldr	r4, [pc, #48]	@ (80036ac <__libc_init_array+0x44>)
 800367c:	f000 fc66 	bl	8003f4c <_init>
 8003680:	1b64      	subs	r4, r4, r5
 8003682:	10a4      	asrs	r4, r4, #2
 8003684:	2600      	movs	r6, #0
 8003686:	42a6      	cmp	r6, r4
 8003688:	d105      	bne.n	8003696 <__libc_init_array+0x2e>
 800368a:	bd70      	pop	{r4, r5, r6, pc}
 800368c:	f855 3b04 	ldr.w	r3, [r5], #4
 8003690:	4798      	blx	r3
 8003692:	3601      	adds	r6, #1
 8003694:	e7ee      	b.n	8003674 <__libc_init_array+0xc>
 8003696:	f855 3b04 	ldr.w	r3, [r5], #4
 800369a:	4798      	blx	r3
 800369c:	3601      	adds	r6, #1
 800369e:	e7f2      	b.n	8003686 <__libc_init_array+0x1e>
 80036a0:	0800405c 	.word	0x0800405c
 80036a4:	0800405c 	.word	0x0800405c
 80036a8:	0800405c 	.word	0x0800405c
 80036ac:	08004060 	.word	0x08004060

080036b0 <__retarget_lock_acquire_recursive>:
 80036b0:	4770      	bx	lr

080036b2 <__retarget_lock_release_recursive>:
 80036b2:	4770      	bx	lr

080036b4 <_free_r>:
 80036b4:	b538      	push	{r3, r4, r5, lr}
 80036b6:	4605      	mov	r5, r0
 80036b8:	2900      	cmp	r1, #0
 80036ba:	d041      	beq.n	8003740 <_free_r+0x8c>
 80036bc:	f851 3c04 	ldr.w	r3, [r1, #-4]
 80036c0:	1f0c      	subs	r4, r1, #4
 80036c2:	2b00      	cmp	r3, #0
 80036c4:	bfb8      	it	lt
 80036c6:	18e4      	addlt	r4, r4, r3
 80036c8:	f000 f8e0 	bl	800388c <__malloc_lock>
 80036cc:	4a1d      	ldr	r2, [pc, #116]	@ (8003744 <_free_r+0x90>)
 80036ce:	6813      	ldr	r3, [r2, #0]
 80036d0:	b933      	cbnz	r3, 80036e0 <_free_r+0x2c>
 80036d2:	6063      	str	r3, [r4, #4]
 80036d4:	6014      	str	r4, [r2, #0]
 80036d6:	4628      	mov	r0, r5
 80036d8:	e8bd 4038 	ldmia.w	sp!, {r3, r4, r5, lr}
 80036dc:	f000 b8dc 	b.w	8003898 <__malloc_unlock>
 80036e0:	42a3      	cmp	r3, r4
 80036e2:	d908      	bls.n	80036f6 <_free_r+0x42>
 80036e4:	6820      	ldr	r0, [r4, #0]
 80036e6:	1821      	adds	r1, r4, r0
 80036e8:	428b      	cmp	r3, r1
 80036ea:	bf01      	itttt	eq
 80036ec:	6819      	ldreq	r1, [r3, #0]
 80036ee:	685b      	ldreq	r3, [r3, #4]
 80036f0:	1809      	addeq	r1, r1, r0
 80036f2:	6021      	streq	r1, [r4, #0]
 80036f4:	e7ed      	b.n	80036d2 <_free_r+0x1e>
 80036f6:	461a      	mov	r2, r3
 80036f8:	685b      	ldr	r3, [r3, #4]
 80036fa:	b10b      	cbz	r3, 8003700 <_free_r+0x4c>
 80036fc:	42a3      	cmp	r3, r4
 80036fe:	d9fa      	bls.n	80036f6 <_free_r+0x42>
 8003700:	6811      	ldr	r1, [r2, #0]
 8003702:	1850      	adds	r0, r2, r1
 8003704:	42a0      	cmp	r0, r4
 8003706:	d10b      	bne.n	8003720 <_free_r+0x6c>
 8003708:	6820      	ldr	r0, [r4, #0]
 800370a:	4401      	add	r1, r0
 800370c:	1850      	adds	r0, r2, r1
 800370e:	4283      	cmp	r3, r0
 8003710:	6011      	str	r1, [r2, #0]
 8003712:	d1e0      	bne.n	80036d6 <_free_r+0x22>
 8003714:	6818      	ldr	r0, [r3, #0]
 8003716:	685b      	ldr	r3, [r3, #4]
 8003718:	6053      	str	r3, [r2, #4]
 800371a:	4408      	add	r0, r1
 800371c:	6010      	str	r0, [r2, #0]
 800371e:	e7da      	b.n	80036d6 <_free_r+0x22>
 8003720:	d902      	bls.n	8003728 <_free_r+0x74>
 8003722:	230c      	movs	r3, #12
 8003724:	602b      	str	r3, [r5, #0]
 8003726:	e7d6      	b.n	80036d6 <_free_r+0x22>
 8003728:	6820      	ldr	r0, [r4, #0]
 800372a:	1821      	adds	r1, r4, r0
 800372c:	428b      	cmp	r3, r1
 800372e:	bf04      	itt	eq
 8003730:	6819      	ldreq	r1, [r3, #0]
 8003732:	685b      	ldreq	r3, [r3, #4]
 8003734:	6063      	str	r3, [r4, #4]
 8003736:	bf04      	itt	eq
 8003738:	1809      	addeq	r1, r1, r0
 800373a:	6021      	streq	r1, [r4, #0]
 800373c:	6054      	str	r4, [r2, #4]
 800373e:	e7ca      	b.n	80036d6 <_free_r+0x22>
 8003740:	bd38      	pop	{r3, r4, r5, pc}
 8003742:	bf00      	nop
 8003744:	24000754 	.word	0x24000754

08003748 <sbrk_aligned>:
 8003748:	b570      	push	{r4, r5, r6, lr}
 800374a:	4e0f      	ldr	r6, [pc, #60]	@ (8003788 <sbrk_aligned+0x40>)
 800374c:	460c      	mov	r4, r1
 800374e:	6831      	ldr	r1, [r6, #0]
 8003750:	4605      	mov	r5, r0
 8003752:	b911      	cbnz	r1, 800375a <sbrk_aligned+0x12>
 8003754:	f000 fba6 	bl	8003ea4 <_sbrk_r>
 8003758:	6030      	str	r0, [r6, #0]
 800375a:	4621      	mov	r1, r4
 800375c:	4628      	mov	r0, r5
 800375e:	f000 fba1 	bl	8003ea4 <_sbrk_r>
 8003762:	1c43      	adds	r3, r0, #1
 8003764:	d103      	bne.n	800376e <sbrk_aligned+0x26>
 8003766:	f04f 34ff 	mov.w	r4, #4294967295
 800376a:	4620      	mov	r0, r4
 800376c:	bd70      	pop	{r4, r5, r6, pc}
 800376e:	1cc4      	adds	r4, r0, #3
 8003770:	f024 0403 	bic.w	r4, r4, #3
 8003774:	42a0      	cmp	r0, r4
 8003776:	d0f8      	beq.n	800376a <sbrk_aligned+0x22>
 8003778:	1a21      	subs	r1, r4, r0
 800377a:	4628      	mov	r0, r5
 800377c:	f000 fb92 	bl	8003ea4 <_sbrk_r>
 8003780:	3001      	adds	r0, #1
 8003782:	d1f2      	bne.n	800376a <sbrk_aligned+0x22>
 8003784:	e7ef      	b.n	8003766 <sbrk_aligned+0x1e>
 8003786:	bf00      	nop
 8003788:	24000750 	.word	0x24000750

0800378c <_malloc_r>:
 800378c:	e92d 43f8 	stmdb	sp!, {r3, r4, r5, r6, r7, r8, r9, lr}
 8003790:	1ccd      	adds	r5, r1, #3
 8003792:	f025 0503 	bic.w	r5, r5, #3
 8003796:	3508      	adds	r5, #8
 8003798:	2d0c      	cmp	r5, #12
 800379a:	bf38      	it	cc
 800379c:	250c      	movcc	r5, #12
 800379e:	2d00      	cmp	r5, #0
 80037a0:	4606      	mov	r6, r0
 80037a2:	db01      	blt.n	80037a8 <_malloc_r+0x1c>
 80037a4:	42a9      	cmp	r1, r5
 80037a6:	d904      	bls.n	80037b2 <_malloc_r+0x26>
 80037a8:	230c      	movs	r3, #12
 80037aa:	6033      	str	r3, [r6, #0]
 80037ac:	2000      	movs	r0, #0
 80037ae:	e8bd 83f8 	ldmia.w	sp!, {r3, r4, r5, r6, r7, r8, r9, pc}
 80037b2:	f8df 80d4 	ldr.w	r8, [pc, #212]	@ 8003888 <_malloc_r+0xfc>
 80037b6:	f000 f869 	bl	800388c <__malloc_lock>
 80037ba:	f8d8 3000 	ldr.w	r3, [r8]
 80037be:	461c      	mov	r4, r3
 80037c0:	bb44      	cbnz	r4, 8003814 <_malloc_r+0x88>
 80037c2:	4629      	mov	r1, r5
 80037c4:	4630      	mov	r0, r6
 80037c6:	f7ff ffbf 	bl	8003748 <sbrk_aligned>
 80037ca:	1c43      	adds	r3, r0, #1
 80037cc:	4604      	mov	r4, r0
 80037ce:	d158      	bne.n	8003882 <_malloc_r+0xf6>
 80037d0:	f8d8 4000 	ldr.w	r4, [r8]
 80037d4:	4627      	mov	r7, r4
 80037d6:	2f00      	cmp	r7, #0
 80037d8:	d143      	bne.n	8003862 <_malloc_r+0xd6>
 80037da:	2c00      	cmp	r4, #0
 80037dc:	d04b      	beq.n	8003876 <_malloc_r+0xea>
 80037de:	6823      	ldr	r3, [r4, #0]
 80037e0:	4639      	mov	r1, r7
 80037e2:	4630      	mov	r0, r6
 80037e4:	eb04 0903 	add.w	r9, r4, r3
 80037e8:	f000 fb5c 	bl	8003ea4 <_sbrk_r>
 80037ec:	4581      	cmp	r9, r0
 80037ee:	d142      	bne.n	8003876 <_malloc_r+0xea>
 80037f0:	6821      	ldr	r1, [r4, #0]
 80037f2:	1a6d      	subs	r5, r5, r1
 80037f4:	4629      	mov	r1, r5
 80037f6:	4630      	mov	r0, r6
 80037f8:	f7ff ffa6 	bl	8003748 <sbrk_aligned>
 80037fc:	3001      	adds	r0, #1
 80037fe:	d03a      	beq.n	8003876 <_malloc_r+0xea>
 8003800:	6823      	ldr	r3, [r4, #0]
 8003802:	442b      	add	r3, r5
 8003804:	6023      	str	r3, [r4, #0]
 8003806:	f8d8 3000 	ldr.w	r3, [r8]
 800380a:	685a      	ldr	r2, [r3, #4]
 800380c:	bb62      	cbnz	r2, 8003868 <_malloc_r+0xdc>
 800380e:	f8c8 7000 	str.w	r7, [r8]
 8003812:	e00f      	b.n	8003834 <_malloc_r+0xa8>
 8003814:	6822      	ldr	r2, [r4, #0]
 8003816:	1b52      	subs	r2, r2, r5
 8003818:	d420      	bmi.n	800385c <_malloc_r+0xd0>
 800381a:	2a0b      	cmp	r2, #11
 800381c:	d917      	bls.n	800384e <_malloc_r+0xc2>
 800381e:	1961      	adds	r1, r4, r5
 8003820:	42a3      	cmp	r3, r4
 8003822:	6025      	str	r5, [r4, #0]
 8003824:	bf18      	it	ne
 8003826:	6059      	strne	r1, [r3, #4]
 8003828:	6863      	ldr	r3, [r4, #4]
 800382a:	bf08      	it	eq
 800382c:	f8c8 1000 	streq.w	r1, [r8]
 8003830:	5162      	str	r2, [r4, r5]
 8003832:	604b      	str	r3, [r1, #4]
 8003834:	4630      	mov	r0, r6
 8003836:	f000 f82f 	bl	8003898 <__malloc_unlock>
 800383a:	f104 000b 	add.w	r0, r4, #11
 800383e:	1d23      	adds	r3, r4, #4
 8003840:	f020 0007 	bic.w	r0, r0, #7
 8003844:	1ac2      	subs	r2, r0, r3
 8003846:	bf1c      	itt	ne
 8003848:	1a1b      	subne	r3, r3, r0
 800384a:	50a3      	strne	r3, [r4, r2]
 800384c:	e7af      	b.n	80037ae <_malloc_r+0x22>
 800384e:	6862      	ldr	r2, [r4, #4]
 8003850:	42a3      	cmp	r3, r4
 8003852:	bf0c      	ite	eq
 8003854:	f8c8 2000 	streq.w	r2, [r8]
 8003858:	605a      	strne	r2, [r3, #4]
 800385a:	e7eb      	b.n	8003834 <_malloc_r+0xa8>
 800385c:	4623      	mov	r3, r4
 800385e:	6864      	ldr	r4, [r4, #4]
 8003860:	e7ae      	b.n	80037c0 <_malloc_r+0x34>
 8003862:	463c      	mov	r4, r7
 8003864:	687f      	ldr	r7, [r7, #4]
 8003866:	e7b6      	b.n	80037d6 <_malloc_r+0x4a>
 8003868:	461a      	mov	r2, r3
 800386a:	685b      	ldr	r3, [r3, #4]
 800386c:	42a3      	cmp	r3, r4
 800386e:	d1fb      	bne.n	8003868 <_malloc_r+0xdc>
 8003870:	2300      	movs	r3, #0
 8003872:	6053      	str	r3, [r2, #4]
 8003874:	e7de      	b.n	8003834 <_malloc_r+0xa8>
 8003876:	230c      	movs	r3, #12
 8003878:	6033      	str	r3, [r6, #0]
 800387a:	4630      	mov	r0, r6
 800387c:	f000 f80c 	bl	8003898 <__malloc_unlock>
 8003880:	e794      	b.n	80037ac <_malloc_r+0x20>
 8003882:	6005      	str	r5, [r0, #0]
 8003884:	e7d6      	b.n	8003834 <_malloc_r+0xa8>
 8003886:	bf00      	nop
 8003888:	24000754 	.word	0x24000754

0800388c <__malloc_lock>:
 800388c:	4801      	ldr	r0, [pc, #4]	@ (8003894 <__malloc_lock+0x8>)
 800388e:	f7ff bf0f 	b.w	80036b0 <__retarget_lock_acquire_recursive>
 8003892:	bf00      	nop
 8003894:	2400074c 	.word	0x2400074c

08003898 <__malloc_unlock>:
 8003898:	4801      	ldr	r0, [pc, #4]	@ (80038a0 <__malloc_unlock+0x8>)
 800389a:	f7ff bf0a 	b.w	80036b2 <__retarget_lock_release_recursive>
 800389e:	bf00      	nop
 80038a0:	2400074c 	.word	0x2400074c

080038a4 <__ssputs_r>:
 80038a4:	e92d 47f0 	stmdb	sp!, {r4, r5, r6, r7, r8, r9, sl, lr}
 80038a8:	688e      	ldr	r6, [r1, #8]
 80038aa:	461f      	mov	r7, r3
 80038ac:	42be      	cmp	r6, r7
 80038ae:	680b      	ldr	r3, [r1, #0]
 80038b0:	4682      	mov	sl, r0
 80038b2:	460c      	mov	r4, r1
 80038b4:	4690      	mov	r8, r2
 80038b6:	d82d      	bhi.n	8003914 <__ssputs_r+0x70>
 80038b8:	f9b1 200c 	ldrsh.w	r2, [r1, #12]
 80038bc:	f412 6f90 	tst.w	r2, #1152	@ 0x480
 80038c0:	d026      	beq.n	8003910 <__ssputs_r+0x6c>
 80038c2:	6965      	ldr	r5, [r4, #20]
 80038c4:	6909      	ldr	r1, [r1, #16]
 80038c6:	eb05 0545 	add.w	r5, r5, r5, lsl #1
 80038ca:	eba3 0901 	sub.w	r9, r3, r1
 80038ce:	eb05 75d5 	add.w	r5, r5, r5, lsr #31
 80038d2:	1c7b      	adds	r3, r7, #1
 80038d4:	444b      	add	r3, r9
 80038d6:	106d      	asrs	r5, r5, #1
 80038d8:	429d      	cmp	r5, r3
 80038da:	bf38      	it	cc
 80038dc:	461d      	movcc	r5, r3
 80038de:	0553      	lsls	r3, r2, #21
 80038e0:	d527      	bpl.n	8003932 <__ssputs_r+0x8e>
 80038e2:	4629      	mov	r1, r5
 80038e4:	f7ff ff52 	bl	800378c <_malloc_r>
 80038e8:	4606      	mov	r6, r0
 80038ea:	b360      	cbz	r0, 8003946 <__ssputs_r+0xa2>
 80038ec:	6921      	ldr	r1, [r4, #16]
 80038ee:	464a      	mov	r2, r9
 80038f0:	f000 fae8 	bl	8003ec4 <memcpy>
 80038f4:	89a3      	ldrh	r3, [r4, #12]
 80038f6:	f423 6390 	bic.w	r3, r3, #1152	@ 0x480
 80038fa:	f043 0380 	orr.w	r3, r3, #128	@ 0x80
 80038fe:	81a3      	strh	r3, [r4, #12]
 8003900:	6126      	str	r6, [r4, #16]
 8003902:	6165      	str	r5, [r4, #20]
 8003904:	444e      	add	r6, r9
 8003906:	eba5 0509 	sub.w	r5, r5, r9
 800390a:	6026      	str	r6, [r4, #0]
 800390c:	60a5      	str	r5, [r4, #8]
 800390e:	463e      	mov	r6, r7
 8003910:	42be      	cmp	r6, r7
 8003912:	d900      	bls.n	8003916 <__ssputs_r+0x72>
 8003914:	463e      	mov	r6, r7
 8003916:	6820      	ldr	r0, [r4, #0]
 8003918:	4632      	mov	r2, r6
 800391a:	4641      	mov	r1, r8
 800391c:	f000 faa8 	bl	8003e70 <memmove>
 8003920:	68a3      	ldr	r3, [r4, #8]
 8003922:	1b9b      	subs	r3, r3, r6
 8003924:	60a3      	str	r3, [r4, #8]
 8003926:	6823      	ldr	r3, [r4, #0]
 8003928:	4433      	add	r3, r6
 800392a:	6023      	str	r3, [r4, #0]
 800392c:	2000      	movs	r0, #0
 800392e:	e8bd 87f0 	ldmia.w	sp!, {r4, r5, r6, r7, r8, r9, sl, pc}
 8003932:	462a      	mov	r2, r5
 8003934:	f000 fad4 	bl	8003ee0 <_realloc_r>
 8003938:	4606      	mov	r6, r0
 800393a:	2800      	cmp	r0, #0
 800393c:	d1e0      	bne.n	8003900 <__ssputs_r+0x5c>
 800393e:	6921      	ldr	r1, [r4, #16]
 8003940:	4650      	mov	r0, sl
 8003942:	f7ff feb7 	bl	80036b4 <_free_r>
 8003946:	230c      	movs	r3, #12
 8003948:	f8ca 3000 	str.w	r3, [sl]
 800394c:	89a3      	ldrh	r3, [r4, #12]
 800394e:	f043 0340 	orr.w	r3, r3, #64	@ 0x40
 8003952:	81a3      	strh	r3, [r4, #12]
 8003954:	f04f 30ff 	mov.w	r0, #4294967295
 8003958:	e7e9      	b.n	800392e <__ssputs_r+0x8a>
	...

0800395c <_svfiprintf_r>:
 800395c:	e92d 4ff0 	stmdb	sp!, {r4, r5, r6, r7, r8, r9, sl, fp, lr}
 8003960:	4698      	mov	r8, r3
 8003962:	898b      	ldrh	r3, [r1, #12]
 8003964:	061b      	lsls	r3, r3, #24
 8003966:	b09d      	sub	sp, #116	@ 0x74
 8003968:	4607      	mov	r7, r0
 800396a:	460d      	mov	r5, r1
 800396c:	4614      	mov	r4, r2
 800396e:	d510      	bpl.n	8003992 <_svfiprintf_r+0x36>
 8003970:	690b      	ldr	r3, [r1, #16]
 8003972:	b973      	cbnz	r3, 8003992 <_svfiprintf_r+0x36>
 8003974:	2140      	movs	r1, #64	@ 0x40
 8003976:	f7ff ff09 	bl	800378c <_malloc_r>
 800397a:	6028      	str	r0, [r5, #0]
 800397c:	6128      	str	r0, [r5, #16]
 800397e:	b930      	cbnz	r0, 800398e <_svfiprintf_r+0x32>
 8003980:	230c      	movs	r3, #12
 8003982:	603b      	str	r3, [r7, #0]
 8003984:	f04f 30ff 	mov.w	r0, #4294967295
 8003988:	b01d      	add	sp, #116	@ 0x74
 800398a:	e8bd 8ff0 	ldmia.w	sp!, {r4, r5, r6, r7, r8, r9, sl, fp, pc}
 800398e:	2340      	movs	r3, #64	@ 0x40
 8003990:	616b      	str	r3, [r5, #20]
 8003992:	2300      	movs	r3, #0
 8003994:	9309      	str	r3, [sp, #36]	@ 0x24
 8003996:	2320      	movs	r3, #32
 8003998:	f88d 3029 	strb.w	r3, [sp, #41]	@ 0x29
 800399c:	f8cd 800c 	str.w	r8, [sp, #12]
 80039a0:	2330      	movs	r3, #48	@ 0x30
 80039a2:	f8df 819c 	ldr.w	r8, [pc, #412]	@ 8003b40 <_svfiprintf_r+0x1e4>
 80039a6:	f88d 302a 	strb.w	r3, [sp, #42]	@ 0x2a
 80039aa:	f04f 0901 	mov.w	r9, #1
 80039ae:	4623      	mov	r3, r4
 80039b0:	469a      	mov	sl, r3
 80039b2:	f813 2b01 	ldrb.w	r2, [r3], #1
 80039b6:	b10a      	cbz	r2, 80039bc <_svfiprintf_r+0x60>
 80039b8:	2a25      	cmp	r2, #37	@ 0x25
 80039ba:	d1f9      	bne.n	80039b0 <_svfiprintf_r+0x54>
 80039bc:	ebba 0b04 	subs.w	fp, sl, r4
 80039c0:	d00b      	beq.n	80039da <_svfiprintf_r+0x7e>
 80039c2:	465b      	mov	r3, fp
 80039c4:	4622      	mov	r2, r4
 80039c6:	4629      	mov	r1, r5
 80039c8:	4638      	mov	r0, r7
 80039ca:	f7ff ff6b 	bl	80038a4 <__ssputs_r>
 80039ce:	3001      	adds	r0, #1
 80039d0:	f000 80a7 	beq.w	8003b22 <_svfiprintf_r+0x1c6>
 80039d4:	9a09      	ldr	r2, [sp, #36]	@ 0x24
 80039d6:	445a      	add	r2, fp
 80039d8:	9209      	str	r2, [sp, #36]	@ 0x24
 80039da:	f89a 3000 	ldrb.w	r3, [sl]
 80039de:	2b00      	cmp	r3, #0
 80039e0:	f000 809f 	beq.w	8003b22 <_svfiprintf_r+0x1c6>
 80039e4:	2300      	movs	r3, #0
 80039e6:	f04f 32ff 	mov.w	r2, #4294967295
 80039ea:	e9cd 2305 	strd	r2, r3, [sp, #20]
 80039ee:	f10a 0a01 	add.w	sl, sl, #1
 80039f2:	9304      	str	r3, [sp, #16]
 80039f4:	9307      	str	r3, [sp, #28]
 80039f6:	f88d 3053 	strb.w	r3, [sp, #83]	@ 0x53
 80039fa:	931a      	str	r3, [sp, #104]	@ 0x68
 80039fc:	4654      	mov	r4, sl
 80039fe:	2205      	movs	r2, #5
 8003a00:	f814 1b01 	ldrb.w	r1, [r4], #1
 8003a04:	484e      	ldr	r0, [pc, #312]	@ (8003b40 <_svfiprintf_r+0x1e4>)
 8003a06:	f7fc fc73 	bl	80002f0 <memchr>
 8003a0a:	9a04      	ldr	r2, [sp, #16]
 8003a0c:	b9d8      	cbnz	r0, 8003a46 <_svfiprintf_r+0xea>
 8003a0e:	06d0      	lsls	r0, r2, #27
 8003a10:	bf44      	itt	mi
 8003a12:	2320      	movmi	r3, #32
 8003a14:	f88d 3053 	strbmi.w	r3, [sp, #83]	@ 0x53
 8003a18:	0711      	lsls	r1, r2, #28
 8003a1a:	bf44      	itt	mi
 8003a1c:	232b      	movmi	r3, #43	@ 0x2b
 8003a1e:	f88d 3053 	strbmi.w	r3, [sp, #83]	@ 0x53
 8003a22:	f89a 3000 	ldrb.w	r3, [sl]
 8003a26:	2b2a      	cmp	r3, #42	@ 0x2a
 8003a28:	d015      	beq.n	8003a56 <_svfiprintf_r+0xfa>
 8003a2a:	9a07      	ldr	r2, [sp, #28]
 8003a2c:	4654      	mov	r4, sl
 8003a2e:	2000      	movs	r0, #0
 8003a30:	f04f 0c0a 	mov.w	ip, #10
 8003a34:	4621      	mov	r1, r4
 8003a36:	f811 3b01 	ldrb.w	r3, [r1], #1
 8003a3a:	3b30      	subs	r3, #48	@ 0x30
 8003a3c:	2b09      	cmp	r3, #9
 8003a3e:	d94b      	bls.n	8003ad8 <_svfiprintf_r+0x17c>
 8003a40:	b1b0      	cbz	r0, 8003a70 <_svfiprintf_r+0x114>
 8003a42:	9207      	str	r2, [sp, #28]
 8003a44:	e014      	b.n	8003a70 <_svfiprintf_r+0x114>
 8003a46:	eba0 0308 	sub.w	r3, r0, r8
 8003a4a:	fa09 f303 	lsl.w	r3, r9, r3
 8003a4e:	4313      	orrs	r3, r2
 8003a50:	9304      	str	r3, [sp, #16]
 8003a52:	46a2      	mov	sl, r4
 8003a54:	e7d2      	b.n	80039fc <_svfiprintf_r+0xa0>
 8003a56:	9b03      	ldr	r3, [sp, #12]
 8003a58:	1d19      	adds	r1, r3, #4
 8003a5a:	681b      	ldr	r3, [r3, #0]
 8003a5c:	9103      	str	r1, [sp, #12]
 8003a5e:	2b00      	cmp	r3, #0
 8003a60:	bfbb      	ittet	lt
 8003a62:	425b      	neglt	r3, r3
 8003a64:	f042 0202 	orrlt.w	r2, r2, #2
 8003a68:	9307      	strge	r3, [sp, #28]
 8003a6a:	9307      	strlt	r3, [sp, #28]
 8003a6c:	bfb8      	it	lt
 8003a6e:	9204      	strlt	r2, [sp, #16]
 8003a70:	7823      	ldrb	r3, [r4, #0]
 8003a72:	2b2e      	cmp	r3, #46	@ 0x2e
 8003a74:	d10a      	bne.n	8003a8c <_svfiprintf_r+0x130>
 8003a76:	7863      	ldrb	r3, [r4, #1]
 8003a78:	2b2a      	cmp	r3, #42	@ 0x2a
 8003a7a:	d132      	bne.n	8003ae2 <_svfiprintf_r+0x186>
 8003a7c:	9b03      	ldr	r3, [sp, #12]
 8003a7e:	1d1a      	adds	r2, r3, #4
 8003a80:	681b      	ldr	r3, [r3, #0]
 8003a82:	9203      	str	r2, [sp, #12]
 8003a84:	ea43 73e3 	orr.w	r3, r3, r3, asr #31
 8003a88:	3402      	adds	r4, #2
 8003a8a:	9305      	str	r3, [sp, #20]
 8003a8c:	f8df a0c0 	ldr.w	sl, [pc, #192]	@ 8003b50 <_svfiprintf_r+0x1f4>
 8003a90:	7821      	ldrb	r1, [r4, #0]
 8003a92:	2203      	movs	r2, #3
 8003a94:	4650      	mov	r0, sl
 8003a96:	f7fc fc2b 	bl	80002f0 <memchr>
 8003a9a:	b138      	cbz	r0, 8003aac <_svfiprintf_r+0x150>
 8003a9c:	9b04      	ldr	r3, [sp, #16]
 8003a9e:	eba0 000a 	sub.w	r0, r0, sl
 8003aa2:	2240      	movs	r2, #64	@ 0x40
 8003aa4:	4082      	lsls	r2, r0
 8003aa6:	4313      	orrs	r3, r2
 8003aa8:	3401      	adds	r4, #1
 8003aaa:	9304      	str	r3, [sp, #16]
 8003aac:	f814 1b01 	ldrb.w	r1, [r4], #1
 8003ab0:	4824      	ldr	r0, [pc, #144]	@ (8003b44 <_svfiprintf_r+0x1e8>)
 8003ab2:	f88d 1028 	strb.w	r1, [sp, #40]	@ 0x28
 8003ab6:	2206      	movs	r2, #6
 8003ab8:	f7fc fc1a 	bl	80002f0 <memchr>
 8003abc:	2800      	cmp	r0, #0
 8003abe:	d036      	beq.n	8003b2e <_svfiprintf_r+0x1d2>
 8003ac0:	4b21      	ldr	r3, [pc, #132]	@ (8003b48 <_svfiprintf_r+0x1ec>)
 8003ac2:	bb1b      	cbnz	r3, 8003b0c <_svfiprintf_r+0x1b0>
 8003ac4:	9b03      	ldr	r3, [sp, #12]
 8003ac6:	3307      	adds	r3, #7
 8003ac8:	f023 0307 	bic.w	r3, r3, #7
 8003acc:	3308      	adds	r3, #8
 8003ace:	9303      	str	r3, [sp, #12]
 8003ad0:	9b09      	ldr	r3, [sp, #36]	@ 0x24
 8003ad2:	4433      	add	r3, r6
 8003ad4:	9309      	str	r3, [sp, #36]	@ 0x24
 8003ad6:	e76a      	b.n	80039ae <_svfiprintf_r+0x52>
 8003ad8:	fb0c 3202 	mla	r2, ip, r2, r3
 8003adc:	460c      	mov	r4, r1
 8003ade:	2001      	movs	r0, #1
 8003ae0:	e7a8      	b.n	8003a34 <_svfiprintf_r+0xd8>
 8003ae2:	2300      	movs	r3, #0
 8003ae4:	3401      	adds	r4, #1
 8003ae6:	9305      	str	r3, [sp, #20]
 8003ae8:	4619      	mov	r1, r3
 8003aea:	f04f 0c0a 	mov.w	ip, #10
 8003aee:	4620      	mov	r0, r4
 8003af0:	f810 2b01 	ldrb.w	r2, [r0], #1
 8003af4:	3a30      	subs	r2, #48	@ 0x30
 8003af6:	2a09      	cmp	r2, #9
 8003af8:	d903      	bls.n	8003b02 <_svfiprintf_r+0x1a6>
 8003afa:	2b00      	cmp	r3, #0
 8003afc:	d0c6      	beq.n	8003a8c <_svfiprintf_r+0x130>
 8003afe:	9105      	str	r1, [sp, #20]
 8003b00:	e7c4      	b.n	8003a8c <_svfiprintf_r+0x130>
 8003b02:	fb0c 2101 	mla	r1, ip, r1, r2
 8003b06:	4604      	mov	r4, r0
 8003b08:	2301      	movs	r3, #1
 8003b0a:	e7f0      	b.n	8003aee <_svfiprintf_r+0x192>
 8003b0c:	ab03      	add	r3, sp, #12
 8003b0e:	9300      	str	r3, [sp, #0]
 8003b10:	462a      	mov	r2, r5
 8003b12:	4b0e      	ldr	r3, [pc, #56]	@ (8003b4c <_svfiprintf_r+0x1f0>)
 8003b14:	a904      	add	r1, sp, #16
 8003b16:	4638      	mov	r0, r7
 8003b18:	f3af 8000 	nop.w
 8003b1c:	1c42      	adds	r2, r0, #1
 8003b1e:	4606      	mov	r6, r0
 8003b20:	d1d6      	bne.n	8003ad0 <_svfiprintf_r+0x174>
 8003b22:	89ab      	ldrh	r3, [r5, #12]
 8003b24:	065b      	lsls	r3, r3, #25
 8003b26:	f53f af2d 	bmi.w	8003984 <_svfiprintf_r+0x28>
 8003b2a:	9809      	ldr	r0, [sp, #36]	@ 0x24
 8003b2c:	e72c      	b.n	8003988 <_svfiprintf_r+0x2c>
 8003b2e:	ab03      	add	r3, sp, #12
 8003b30:	9300      	str	r3, [sp, #0]
 8003b32:	462a      	mov	r2, r5
 8003b34:	4b05      	ldr	r3, [pc, #20]	@ (8003b4c <_svfiprintf_r+0x1f0>)
 8003b36:	a904      	add	r1, sp, #16
 8003b38:	4638      	mov	r0, r7
 8003b3a:	f000 f879 	bl	8003c30 <_printf_i>
 8003b3e:	e7ed      	b.n	8003b1c <_svfiprintf_r+0x1c0>
 8003b40:	08004020 	.word	0x08004020
 8003b44:	0800402a 	.word	0x0800402a
 8003b48:	00000000 	.word	0x00000000
 8003b4c:	080038a5 	.word	0x080038a5
 8003b50:	08004026 	.word	0x08004026

08003b54 <_printf_common>:
 8003b54:	e92d 47f0 	stmdb	sp!, {r4, r5, r6, r7, r8, r9, sl, lr}
 8003b58:	4616      	mov	r6, r2
 8003b5a:	4698      	mov	r8, r3
 8003b5c:	688a      	ldr	r2, [r1, #8]
 8003b5e:	690b      	ldr	r3, [r1, #16]
 8003b60:	f8dd 9020 	ldr.w	r9, [sp, #32]
 8003b64:	4293      	cmp	r3, r2
 8003b66:	bfb8      	it	lt
 8003b68:	4613      	movlt	r3, r2
 8003b6a:	6033      	str	r3, [r6, #0]
 8003b6c:	f891 2043 	ldrb.w	r2, [r1, #67]	@ 0x43
 8003b70:	4607      	mov	r7, r0
 8003b72:	460c      	mov	r4, r1
 8003b74:	b10a      	cbz	r2, 8003b7a <_printf_common+0x26>
 8003b76:	3301      	adds	r3, #1
 8003b78:	6033      	str	r3, [r6, #0]
 8003b7a:	6823      	ldr	r3, [r4, #0]
 8003b7c:	0699      	lsls	r1, r3, #26
 8003b7e:	bf42      	ittt	mi
 8003b80:	6833      	ldrmi	r3, [r6, #0]
 8003b82:	3302      	addmi	r3, #2
 8003b84:	6033      	strmi	r3, [r6, #0]
 8003b86:	6825      	ldr	r5, [r4, #0]
 8003b88:	f015 0506 	ands.w	r5, r5, #6
 8003b8c:	d106      	bne.n	8003b9c <_printf_common+0x48>
 8003b8e:	f104 0a19 	add.w	sl, r4, #25
 8003b92:	68e3      	ldr	r3, [r4, #12]
 8003b94:	6832      	ldr	r2, [r6, #0]
 8003b96:	1a9b      	subs	r3, r3, r2
 8003b98:	42ab      	cmp	r3, r5
 8003b9a:	dc26      	bgt.n	8003bea <_printf_common+0x96>
 8003b9c:	f894 3043 	ldrb.w	r3, [r4, #67]	@ 0x43
 8003ba0:	6822      	ldr	r2, [r4, #0]
 8003ba2:	3b00      	subs	r3, #0
 8003ba4:	bf18      	it	ne
 8003ba6:	2301      	movne	r3, #1
 8003ba8:	0692      	lsls	r2, r2, #26
 8003baa:	d42b      	bmi.n	8003c04 <_printf_common+0xb0>
 8003bac:	f104 0243 	add.w	r2, r4, #67	@ 0x43
 8003bb0:	4641      	mov	r1, r8
 8003bb2:	4638      	mov	r0, r7
 8003bb4:	47c8      	blx	r9
 8003bb6:	3001      	adds	r0, #1
 8003bb8:	d01e      	beq.n	8003bf8 <_printf_common+0xa4>
 8003bba:	6823      	ldr	r3, [r4, #0]
 8003bbc:	6922      	ldr	r2, [r4, #16]
 8003bbe:	f003 0306 	and.w	r3, r3, #6
 8003bc2:	2b04      	cmp	r3, #4
 8003bc4:	bf02      	ittt	eq
 8003bc6:	68e5      	ldreq	r5, [r4, #12]
 8003bc8:	6833      	ldreq	r3, [r6, #0]
 8003bca:	1aed      	subeq	r5, r5, r3
 8003bcc:	68a3      	ldr	r3, [r4, #8]
 8003bce:	bf0c      	ite	eq
 8003bd0:	ea25 75e5 	biceq.w	r5, r5, r5, asr #31
 8003bd4:	2500      	movne	r5, #0
 8003bd6:	4293      	cmp	r3, r2
 8003bd8:	bfc4      	itt	gt
 8003bda:	1a9b      	subgt	r3, r3, r2
 8003bdc:	18ed      	addgt	r5, r5, r3
 8003bde:	2600      	movs	r6, #0
 8003be0:	341a      	adds	r4, #26
 8003be2:	42b5      	cmp	r5, r6
 8003be4:	d11a      	bne.n	8003c1c <_printf_common+0xc8>
 8003be6:	2000      	movs	r0, #0
 8003be8:	e008      	b.n	8003bfc <_printf_common+0xa8>
 8003bea:	2301      	movs	r3, #1
 8003bec:	4652      	mov	r2, sl
 8003bee:	4641      	mov	r1, r8
 8003bf0:	4638      	mov	r0, r7
 8003bf2:	47c8      	blx	r9
 8003bf4:	3001      	adds	r0, #1
 8003bf6:	d103      	bne.n	8003c00 <_printf_common+0xac>
 8003bf8:	f04f 30ff 	mov.w	r0, #4294967295
 8003bfc:	e8bd 87f0 	ldmia.w	sp!, {r4, r5, r6, r7, r8, r9, sl, pc}
 8003c00:	3501      	adds	r5, #1
 8003c02:	e7c6      	b.n	8003b92 <_printf_common+0x3e>
 8003c04:	18e1      	adds	r1, r4, r3
 8003c06:	1c5a      	adds	r2, r3, #1
 8003c08:	2030      	movs	r0, #48	@ 0x30
 8003c0a:	f881 0043 	strb.w	r0, [r1, #67]	@ 0x43
 8003c0e:	4422      	add	r2, r4
 8003c10:	f894 1045 	ldrb.w	r1, [r4, #69]	@ 0x45
 8003c14:	f882 1043 	strb.w	r1, [r2, #67]	@ 0x43
 8003c18:	3302      	adds	r3, #2
 8003c1a:	e7c7      	b.n	8003bac <_printf_common+0x58>
 8003c1c:	2301      	movs	r3, #1
 8003c1e:	4622      	mov	r2, r4
 8003c20:	4641      	mov	r1, r8
 8003c22:	4638      	mov	r0, r7
 8003c24:	47c8      	blx	r9
 8003c26:	3001      	adds	r0, #1
 8003c28:	d0e6      	beq.n	8003bf8 <_printf_common+0xa4>
 8003c2a:	3601      	adds	r6, #1
 8003c2c:	e7d9      	b.n	8003be2 <_printf_common+0x8e>
	...

08003c30 <_printf_i>:
 8003c30:	e92d 47ff 	stmdb	sp!, {r0, r1, r2, r3, r4, r5, r6, r7, r8, r9, sl, lr}
 8003c34:	7e0f      	ldrb	r7, [r1, #24]
 8003c36:	9e0c      	ldr	r6, [sp, #48]	@ 0x30
 8003c38:	2f78      	cmp	r7, #120	@ 0x78
 8003c3a:	4691      	mov	r9, r2
 8003c3c:	4680      	mov	r8, r0
 8003c3e:	460c      	mov	r4, r1
 8003c40:	469a      	mov	sl, r3
 8003c42:	f101 0243 	add.w	r2, r1, #67	@ 0x43
 8003c46:	d807      	bhi.n	8003c58 <_printf_i+0x28>
 8003c48:	2f62      	cmp	r7, #98	@ 0x62
 8003c4a:	d80a      	bhi.n	8003c62 <_printf_i+0x32>
 8003c4c:	2f00      	cmp	r7, #0
 8003c4e:	f000 80d2 	beq.w	8003df6 <_printf_i+0x1c6>
 8003c52:	2f58      	cmp	r7, #88	@ 0x58
 8003c54:	f000 80b9 	beq.w	8003dca <_printf_i+0x19a>
 8003c58:	f104 0642 	add.w	r6, r4, #66	@ 0x42
 8003c5c:	f884 7042 	strb.w	r7, [r4, #66]	@ 0x42
 8003c60:	e03a      	b.n	8003cd8 <_printf_i+0xa8>
 8003c62:	f1a7 0363 	sub.w	r3, r7, #99	@ 0x63
 8003c66:	2b15      	cmp	r3, #21
 8003c68:	d8f6      	bhi.n	8003c58 <_printf_i+0x28>
 8003c6a:	a101      	add	r1, pc, #4	@ (adr r1, 8003c70 <_printf_i+0x40>)
 8003c6c:	f851 f023 	ldr.w	pc, [r1, r3, lsl #2]
 8003c70:	08003cc9 	.word	0x08003cc9
 8003c74:	08003cdd 	.word	0x08003cdd
 8003c78:	08003c59 	.word	0x08003c59
 8003c7c:	08003c59 	.word	0x08003c59
 8003c80:	08003c59 	.word	0x08003c59
 8003c84:	08003c59 	.word	0x08003c59
 8003c88:	08003cdd 	.word	0x08003cdd
 8003c8c:	08003c59 	.word	0x08003c59
 8003c90:	08003c59 	.word	0x08003c59
 8003c94:	08003c59 	.word	0x08003c59
 8003c98:	08003c59 	.word	0x08003c59
 8003c9c:	08003ddd 	.word	0x08003ddd
 8003ca0:	08003d07 	.word	0x08003d07
 8003ca4:	08003d97 	.word	0x08003d97
 8003ca8:	08003c59 	.word	0x08003c59
 8003cac:	08003c59 	.word	0x08003c59
 8003cb0:	08003dff 	.word	0x08003dff
 8003cb4:	08003c59 	.word	0x08003c59
 8003cb8:	08003d07 	.word	0x08003d07
 8003cbc:	08003c59 	.word	0x08003c59
 8003cc0:	08003c59 	.word	0x08003c59
 8003cc4:	08003d9f 	.word	0x08003d9f
 8003cc8:	6833      	ldr	r3, [r6, #0]
 8003cca:	1d1a      	adds	r2, r3, #4
 8003ccc:	681b      	ldr	r3, [r3, #0]
 8003cce:	6032      	str	r2, [r6, #0]
 8003cd0:	f104 0642 	add.w	r6, r4, #66	@ 0x42
 8003cd4:	f884 3042 	strb.w	r3, [r4, #66]	@ 0x42
 8003cd8:	2301      	movs	r3, #1
 8003cda:	e09d      	b.n	8003e18 <_printf_i+0x1e8>
 8003cdc:	6833      	ldr	r3, [r6, #0]
 8003cde:	6820      	ldr	r0, [r4, #0]
 8003ce0:	1d19      	adds	r1, r3, #4
 8003ce2:	6031      	str	r1, [r6, #0]
 8003ce4:	0606      	lsls	r6, r0, #24
 8003ce6:	d501      	bpl.n	8003cec <_printf_i+0xbc>
 8003ce8:	681d      	ldr	r5, [r3, #0]
 8003cea:	e003      	b.n	8003cf4 <_printf_i+0xc4>
 8003cec:	0645      	lsls	r5, r0, #25
 8003cee:	d5fb      	bpl.n	8003ce8 <_printf_i+0xb8>
 8003cf0:	f9b3 5000 	ldrsh.w	r5, [r3]
 8003cf4:	2d00      	cmp	r5, #0
 8003cf6:	da03      	bge.n	8003d00 <_printf_i+0xd0>
 8003cf8:	232d      	movs	r3, #45	@ 0x2d
 8003cfa:	426d      	negs	r5, r5
 8003cfc:	f884 3043 	strb.w	r3, [r4, #67]	@ 0x43
 8003d00:	4859      	ldr	r0, [pc, #356]	@ (8003e68 <_printf_i+0x238>)
 8003d02:	230a      	movs	r3, #10
 8003d04:	e011      	b.n	8003d2a <_printf_i+0xfa>
 8003d06:	6821      	ldr	r1, [r4, #0]
 8003d08:	6833      	ldr	r3, [r6, #0]
 8003d0a:	0608      	lsls	r0, r1, #24
 8003d0c:	f853 5b04 	ldr.w	r5, [r3], #4
 8003d10:	d402      	bmi.n	8003d18 <_printf_i+0xe8>
 8003d12:	0649      	lsls	r1, r1, #25
 8003d14:	bf48      	it	mi
 8003d16:	b2ad      	uxthmi	r5, r5
 8003d18:	2f6f      	cmp	r7, #111	@ 0x6f
 8003d1a:	4853      	ldr	r0, [pc, #332]	@ (8003e68 <_printf_i+0x238>)
 8003d1c:	6033      	str	r3, [r6, #0]
 8003d1e:	bf14      	ite	ne
 8003d20:	230a      	movne	r3, #10
 8003d22:	2308      	moveq	r3, #8
 8003d24:	2100      	movs	r1, #0
 8003d26:	f884 1043 	strb.w	r1, [r4, #67]	@ 0x43
 8003d2a:	6866      	ldr	r6, [r4, #4]
 8003d2c:	60a6      	str	r6, [r4, #8]
 8003d2e:	2e00      	cmp	r6, #0
 8003d30:	bfa2      	ittt	ge
 8003d32:	6821      	ldrge	r1, [r4, #0]
 8003d34:	f021 0104 	bicge.w	r1, r1, #4
 8003d38:	6021      	strge	r1, [r4, #0]
 8003d3a:	b90d      	cbnz	r5, 8003d40 <_printf_i+0x110>
 8003d3c:	2e00      	cmp	r6, #0
 8003d3e:	d04b      	beq.n	8003dd8 <_printf_i+0x1a8>
 8003d40:	4616      	mov	r6, r2
 8003d42:	fbb5 f1f3 	udiv	r1, r5, r3
 8003d46:	fb03 5711 	mls	r7, r3, r1, r5
 8003d4a:	5dc7      	ldrb	r7, [r0, r7]
 8003d4c:	f806 7d01 	strb.w	r7, [r6, #-1]!
 8003d50:	462f      	mov	r7, r5
 8003d52:	42bb      	cmp	r3, r7
 8003d54:	460d      	mov	r5, r1
 8003d56:	d9f4      	bls.n	8003d42 <_printf_i+0x112>
 8003d58:	2b08      	cmp	r3, #8
 8003d5a:	d10b      	bne.n	8003d74 <_printf_i+0x144>
 8003d5c:	6823      	ldr	r3, [r4, #0]
 8003d5e:	07df      	lsls	r7, r3, #31
 8003d60:	d508      	bpl.n	8003d74 <_printf_i+0x144>
 8003d62:	6923      	ldr	r3, [r4, #16]
 8003d64:	6861      	ldr	r1, [r4, #4]
 8003d66:	4299      	cmp	r1, r3
 8003d68:	bfde      	ittt	le
 8003d6a:	2330      	movle	r3, #48	@ 0x30
 8003d6c:	f806 3c01 	strble.w	r3, [r6, #-1]
 8003d70:	f106 36ff 	addle.w	r6, r6, #4294967295
 8003d74:	1b92      	subs	r2, r2, r6
 8003d76:	6122      	str	r2, [r4, #16]
 8003d78:	f8cd a000 	str.w	sl, [sp]
 8003d7c:	464b      	mov	r3, r9
 8003d7e:	aa03      	add	r2, sp, #12
 8003d80:	4621      	mov	r1, r4
 8003d82:	4640      	mov	r0, r8
 8003d84:	f7ff fee6 	bl	8003b54 <_printf_common>
 8003d88:	3001      	adds	r0, #1
 8003d8a:	d14a      	bne.n	8003e22 <_printf_i+0x1f2>
 8003d8c:	f04f 30ff 	mov.w	r0, #4294967295
 8003d90:	b004      	add	sp, #16
 8003d92:	e8bd 87f0 	ldmia.w	sp!, {r4, r5, r6, r7, r8, r9, sl, pc}
 8003d96:	6823      	ldr	r3, [r4, #0]
 8003d98:	f043 0320 	orr.w	r3, r3, #32
 8003d9c:	6023      	str	r3, [r4, #0]
 8003d9e:	4833      	ldr	r0, [pc, #204]	@ (8003e6c <_printf_i+0x23c>)
 8003da0:	2778      	movs	r7, #120	@ 0x78
 8003da2:	f884 7045 	strb.w	r7, [r4, #69]	@ 0x45
 8003da6:	6823      	ldr	r3, [r4, #0]
 8003da8:	6831      	ldr	r1, [r6, #0]
 8003daa:	061f      	lsls	r7, r3, #24
 8003dac:	f851 5b04 	ldr.w	r5, [r1], #4
 8003db0:	d402      	bmi.n	8003db8 <_printf_i+0x188>
 8003db2:	065f      	lsls	r7, r3, #25
 8003db4:	bf48      	it	mi
 8003db6:	b2ad      	uxthmi	r5, r5
 8003db8:	6031      	str	r1, [r6, #0]
 8003dba:	07d9      	lsls	r1, r3, #31
 8003dbc:	bf44      	itt	mi
 8003dbe:	f043 0320 	orrmi.w	r3, r3, #32
 8003dc2:	6023      	strmi	r3, [r4, #0]
 8003dc4:	b11d      	cbz	r5, 8003dce <_printf_i+0x19e>
 8003dc6:	2310      	movs	r3, #16
 8003dc8:	e7ac      	b.n	8003d24 <_printf_i+0xf4>
 8003dca:	4827      	ldr	r0, [pc, #156]	@ (8003e68 <_printf_i+0x238>)
 8003dcc:	e7e9      	b.n	8003da2 <_printf_i+0x172>
 8003dce:	6823      	ldr	r3, [r4, #0]
 8003dd0:	f023 0320 	bic.w	r3, r3, #32
 8003dd4:	6023      	str	r3, [r4, #0]
 8003dd6:	e7f6      	b.n	8003dc6 <_printf_i+0x196>
 8003dd8:	4616      	mov	r6, r2
 8003dda:	e7bd      	b.n	8003d58 <_printf_i+0x128>
 8003ddc:	6833      	ldr	r3, [r6, #0]
 8003dde:	6825      	ldr	r5, [r4, #0]
 8003de0:	6961      	ldr	r1, [r4, #20]
 8003de2:	1d18      	adds	r0, r3, #4
 8003de4:	6030      	str	r0, [r6, #0]
 8003de6:	062e      	lsls	r6, r5, #24
 8003de8:	681b      	ldr	r3, [r3, #0]
 8003dea:	d501      	bpl.n	8003df0 <_printf_i+0x1c0>
 8003dec:	6019      	str	r1, [r3, #0]
 8003dee:	e002      	b.n	8003df6 <_printf_i+0x1c6>
 8003df0:	0668      	lsls	r0, r5, #25
 8003df2:	d5fb      	bpl.n	8003dec <_printf_i+0x1bc>
 8003df4:	8019      	strh	r1, [r3, #0]
 8003df6:	2300      	movs	r3, #0
 8003df8:	6123      	str	r3, [r4, #16]
 8003dfa:	4616      	mov	r6, r2
 8003dfc:	e7bc      	b.n	8003d78 <_printf_i+0x148>
 8003dfe:	6833      	ldr	r3, [r6, #0]
 8003e00:	1d1a      	adds	r2, r3, #4
 8003e02:	6032      	str	r2, [r6, #0]
 8003e04:	681e      	ldr	r6, [r3, #0]
 8003e06:	6862      	ldr	r2, [r4, #4]
 8003e08:	2100      	movs	r1, #0
 8003e0a:	4630      	mov	r0, r6
 8003e0c:	f7fc fa70 	bl	80002f0 <memchr>
 8003e10:	b108      	cbz	r0, 8003e16 <_printf_i+0x1e6>
 8003e12:	1b80      	subs	r0, r0, r6
 8003e14:	6060      	str	r0, [r4, #4]
 8003e16:	6863      	ldr	r3, [r4, #4]
 8003e18:	6123      	str	r3, [r4, #16]
 8003e1a:	2300      	movs	r3, #0
 8003e1c:	f884 3043 	strb.w	r3, [r4, #67]	@ 0x43
 8003e20:	e7aa      	b.n	8003d78 <_printf_i+0x148>
 8003e22:	6923      	ldr	r3, [r4, #16]
 8003e24:	4632      	mov	r2, r6
 8003e26:	4649      	mov	r1, r9
 8003e28:	4640      	mov	r0, r8
 8003e2a:	47d0      	blx	sl
 8003e2c:	3001      	adds	r0, #1
 8003e2e:	d0ad      	beq.n	8003d8c <_printf_i+0x15c>
 8003e30:	6823      	ldr	r3, [r4, #0]
 8003e32:	079b      	lsls	r3, r3, #30
 8003e34:	d413      	bmi.n	8003e5e <_printf_i+0x22e>
 8003e36:	68e0      	ldr	r0, [r4, #12]
 8003e38:	9b03      	ldr	r3, [sp, #12]
 8003e3a:	4298      	cmp	r0, r3
 8003e3c:	bfb8      	it	lt
 8003e3e:	4618      	movlt	r0, r3
 8003e40:	e7a6      	b.n	8003d90 <_printf_i+0x160>
 8003e42:	2301      	movs	r3, #1
 8003e44:	4632      	mov	r2, r6
 8003e46:	4649      	mov	r1, r9
 8003e48:	4640      	mov	r0, r8
 8003e4a:	47d0      	blx	sl
 8003e4c:	3001      	adds	r0, #1
 8003e4e:	d09d      	beq.n	8003d8c <_printf_i+0x15c>
 8003e50:	3501      	adds	r5, #1
 8003e52:	68e3      	ldr	r3, [r4, #12]
 8003e54:	9903      	ldr	r1, [sp, #12]
 8003e56:	1a5b      	subs	r3, r3, r1
 8003e58:	42ab      	cmp	r3, r5
 8003e5a:	dcf2      	bgt.n	8003e42 <_printf_i+0x212>
 8003e5c:	e7eb      	b.n	8003e36 <_printf_i+0x206>
 8003e5e:	2500      	movs	r5, #0
 8003e60:	f104 0619 	add.w	r6, r4, #25
 8003e64:	e7f5      	b.n	8003e52 <_printf_i+0x222>
 8003e66:	bf00      	nop
 8003e68:	08004031 	.word	0x08004031
 8003e6c:	08004042 	.word	0x08004042

08003e70 <memmove>:
 8003e70:	4288      	cmp	r0, r1
 8003e72:	b510      	push	{r4, lr}
 8003e74:	eb01 0402 	add.w	r4, r1, r2
 8003e78:	d902      	bls.n	8003e80 <memmove+0x10>
 8003e7a:	4284      	cmp	r4, r0
 8003e7c:	4623      	mov	r3, r4
 8003e7e:	d807      	bhi.n	8003e90 <memmove+0x20>
 8003e80:	1e43      	subs	r3, r0, #1
 8003e82:	42a1      	cmp	r1, r4
 8003e84:	d008      	beq.n	8003e98 <memmove+0x28>
 8003e86:	f811 2b01 	ldrb.w	r2, [r1], #1
 8003e8a:	f803 2f01 	strb.w	r2, [r3, #1]!
 8003e8e:	e7f8      	b.n	8003e82 <memmove+0x12>
 8003e90:	4402      	add	r2, r0
 8003e92:	4601      	mov	r1, r0
 8003e94:	428a      	cmp	r2, r1
 8003e96:	d100      	bne.n	8003e9a <memmove+0x2a>
 8003e98:	bd10      	pop	{r4, pc}
 8003e9a:	f813 4d01 	ldrb.w	r4, [r3, #-1]!
 8003e9e:	f802 4d01 	strb.w	r4, [r2, #-1]!
 8003ea2:	e7f7      	b.n	8003e94 <memmove+0x24>

08003ea4 <_sbrk_r>:
 8003ea4:	b538      	push	{r3, r4, r5, lr}
 8003ea6:	4d06      	ldr	r5, [pc, #24]	@ (8003ec0 <_sbrk_r+0x1c>)
 8003ea8:	2300      	movs	r3, #0
 8003eaa:	4604      	mov	r4, r0
 8003eac:	4608      	mov	r0, r1
 8003eae:	602b      	str	r3, [r5, #0]
 8003eb0:	f7fc fdc8 	bl	8000a44 <_sbrk>
 8003eb4:	1c43      	adds	r3, r0, #1
 8003eb6:	d102      	bne.n	8003ebe <_sbrk_r+0x1a>
 8003eb8:	682b      	ldr	r3, [r5, #0]
 8003eba:	b103      	cbz	r3, 8003ebe <_sbrk_r+0x1a>
 8003ebc:	6023      	str	r3, [r4, #0]
 8003ebe:	bd38      	pop	{r3, r4, r5, pc}
 8003ec0:	24000748 	.word	0x24000748

08003ec4 <memcpy>:
 8003ec4:	440a      	add	r2, r1
 8003ec6:	4291      	cmp	r1, r2
 8003ec8:	f100 33ff 	add.w	r3, r0, #4294967295
 8003ecc:	d100      	bne.n	8003ed0 <memcpy+0xc>
 8003ece:	4770      	bx	lr
 8003ed0:	b510      	push	{r4, lr}
 8003ed2:	f811 4b01 	ldrb.w	r4, [r1], #1
 8003ed6:	f803 4f01 	strb.w	r4, [r3, #1]!
 8003eda:	4291      	cmp	r1, r2
 8003edc:	d1f9      	bne.n	8003ed2 <memcpy+0xe>
 8003ede:	bd10      	pop	{r4, pc}

08003ee0 <_realloc_r>:
 8003ee0:	e92d 41f0 	stmdb	sp!, {r4, r5, r6, r7, r8, lr}
 8003ee4:	4680      	mov	r8, r0
 8003ee6:	4615      	mov	r5, r2
 8003ee8:	460c      	mov	r4, r1
 8003eea:	b921      	cbnz	r1, 8003ef6 <_realloc_r+0x16>
 8003eec:	e8bd 41f0 	ldmia.w	sp!, {r4, r5, r6, r7, r8, lr}
 8003ef0:	4611      	mov	r1, r2
 8003ef2:	f7ff bc4b 	b.w	800378c <_malloc_r>
 8003ef6:	b92a      	cbnz	r2, 8003f04 <_realloc_r+0x24>
 8003ef8:	f7ff fbdc 	bl	80036b4 <_free_r>
 8003efc:	2400      	movs	r4, #0
 8003efe:	4620      	mov	r0, r4
 8003f00:	e8bd 81f0 	ldmia.w	sp!, {r4, r5, r6, r7, r8, pc}
 8003f04:	f000 f81a 	bl	8003f3c <_malloc_usable_size_r>
 8003f08:	4285      	cmp	r5, r0
 8003f0a:	4606      	mov	r6, r0
 8003f0c:	d802      	bhi.n	8003f14 <_realloc_r+0x34>
 8003f0e:	ebb5 0f50 	cmp.w	r5, r0, lsr #1
 8003f12:	d8f4      	bhi.n	8003efe <_realloc_r+0x1e>
 8003f14:	4629      	mov	r1, r5
 8003f16:	4640      	mov	r0, r8
 8003f18:	f7ff fc38 	bl	800378c <_malloc_r>
 8003f1c:	4607      	mov	r7, r0
 8003f1e:	2800      	cmp	r0, #0
 8003f20:	d0ec      	beq.n	8003efc <_realloc_r+0x1c>
 8003f22:	42b5      	cmp	r5, r6
 8003f24:	462a      	mov	r2, r5
 8003f26:	4621      	mov	r1, r4
 8003f28:	bf28      	it	cs
 8003f2a:	4632      	movcs	r2, r6
 8003f2c:	f7ff ffca 	bl	8003ec4 <memcpy>
 8003f30:	4621      	mov	r1, r4
 8003f32:	4640      	mov	r0, r8
 8003f34:	f7ff fbbe 	bl	80036b4 <_free_r>
 8003f38:	463c      	mov	r4, r7
 8003f3a:	e7e0      	b.n	8003efe <_realloc_r+0x1e>

08003f3c <_malloc_usable_size_r>:
 8003f3c:	f851 3c04 	ldr.w	r3, [r1, #-4]
 8003f40:	1f18      	subs	r0, r3, #4
 8003f42:	2b00      	cmp	r3, #0
 8003f44:	bfbc      	itt	lt
 8003f46:	580b      	ldrlt	r3, [r1, r0]
 8003f48:	18c0      	addlt	r0, r0, r3
 8003f4a:	4770      	bx	lr

08003f4c <_init>:
 8003f4c:	b5f8      	push	{r3, r4, r5, r6, r7, lr}
 8003f4e:	bf00      	nop
 8003f50:	bcf8      	pop	{r3, r4, r5, r6, r7}
 8003f52:	bc08      	pop	{r3}
 8003f54:	469e      	mov	lr, r3
 8003f56:	4770      	bx	lr

08003f58 <_fini>:
 8003f58:	b5f8      	push	{r3, r4, r5, r6, r7, lr}
 8003f5a:	bf00      	nop
 8003f5c:	bcf8      	pop	{r3, r4, r5, r6, r7}
 8003f5e:	bc08      	pop	{r3}
 8003f60:	469e      	mov	lr, r3
 8003f62:	4770      	bx	lr
